(dp0
S'class_sl'
p1
(dp2
S'HighQuality'
p3
(I0
I26
tp4
sS'LowQuality'
p5
(I26
I63
tp6
ssS'class_hierarchy'
p7
(dp8
g3
(lp9
S'HighQuality_subcl'
p10
asg5
(lp11
S'LowQuality_subcl'
p12
assS'feats'
p13
(dp14
S'f_292'
p15
(lp16
F12080.536912794174
aF11601.67579765901
aF6898.817345597854
aF2661.3439787081747
aF2943.1000654020213
aF2281.616688393148
aF15384.615384564351
aF7486.97916667649
aF8380.824673144427
aF6497.725795972992
aF8614.50107680936
aF9761.023224499979
aF13651.877133159103
aF3837.5439718615207
aF1962.0667102641733
aF6451.6129032319395
aF29042.904290400154
aF24287.564766840187
aF14600.908501015267
aF12239.497188267218
aF8064.516129030646
aF9141.364675160912
aF23421.588594665856
aF8034.817542674111
aF21160.409556263778
aF6559.527714004034
aF5513.439007576936
aF10143.97905758822
aF11604.774535839553
aF2709.109380289715
aF21454.91116323676
aF2277.1633051365434
aF10659.560293172759
aF16682.707731744074
aF11126.564673197692
aF5515.89876703274
aF7164.790173996577
aF4862.236628843375
aF14015.645371623998
aF10876.954452784083
aF6453.694740239075
aF4551.365409629483
aF5191.434133677596
aF6158.833063207279
aF9582.477754957074
aF15221.707478543774
aF1594.8963317337461
aF20744.155416503312
aF956.3277016258987
aF5144.032921806379
aF15630.087919213945
aF6813.757300455608
aF9747.292418770425
aF6134.969325157075
aF10547.13249837931
aF644.5375443113631
aF14993.481095214544
aF3306.878306876191
aF2995.0083194662907
aF14028.056112277043
aF9711.880867594367
aF3653.2713384257663
aF4882.812499992657
asS'f_1830'
p17
(lp18
F134228.18791993524
aF150821.7853693621
aF67674.11300919401
aF29274.783765800505
aF58534.990189661265
aF17275.09778352294
aF238297.87233999837
aF112630.20833337847
aF96211.8672477454
aF38661.46848605893
aF66044.50825557268
aF48468.52911470387
aF86689.41979523461
aF39654.62104257244
aF31393.067364289185
aF52580.64516130234
aF196699.66996709217
aF171632.12435203514
aF216093.4458146131
aF89315.24975190456
aF55161.290322574954
aF51909.89226249012
aF144602.85132382394
aF85035.15232665298
aF142662.1160411319
aF46572.646769368126
aF54789.80013779443
aF98821.98952875461
aF148541.11405853534
aF50457.162207881134
aF79785.45088836334
aF43916.72088487228
aF65289.806795471224
aF232916.26564036656
aF81363.00417242633
aF26606.099935095455
aF73353.8041623511
aF42463.53322530913
aF112451.10821419254
aF105370.49626102144
aF41303.64633755882
aF96553.96618990603
aF147955.87280998693
aF256401.94489502284
aF65023.95619435546
aF93977.49834547621
aF40510.366826193414
aF304576.88508407085
aF9244.501115716006
aF101508.91632374914
aF62520.35167706295
aF159636.59961033217
aF69675.09025270888
aF86858.24991931183
aF178312.45880030582
aF11923.944569798148
aF154172.0990875422
aF42328.0423280447
aF63893.51081529498
aF217100.8684032251
aF158951.11686638818
aF47492.527399461
aF20182.291666618363
asS'f_161'
p19
(lp20
F0.0
aF0.0
aF985.5453350852586
aF332.6679973387864
aF981.0333551343539
aF0.0
aF0.0
aF325.5208333336254
aF0.0
aF974.6588693959487
aF717.8750897346841
aF4039.044092899127
aF682.5938566557838
aF319.7953309882905
aF0.0
aF0.0
aF0.0
aF323.83419689154584
aF0.0
aF992.3916639104016
aF645.1612903228621
aF0.0
aF1018.3299388999708
aF1004.3521928350626
aF341.29692832750055
aF327.97638570020166
aF0.0
aF0.0
aF0.0
aF0.0
aF1340.9319477089623
aF325.3090435913782
aF999.3337774817674
aF0.0
aF0.0
aF973.3939000651476
aF341.1804844759758
aF324.149108589902
aF325.94524119952126
aF679.8096532968426
aF322.68473701195376
aF0.0
aF324.4646333551077
aF0.0
aF342.2313483914018
aF0.0
aF318.9792663477639
aF0.0
aF0.0
aF0.0
aF0.0
aF648.9292667099596
aF0.0
aF0.0
aF0.0
aF644.5375443113631
aF0.0
aF992.0634920628572
aF0.0
aF334.00133600553374
aF323.72936225314555
aF332.1155762204281
aF325.52083333318893
asS'f_692'
p21
(lp22
F0.0
aF1289.0750886287788
aF657.0302233901723
aF998.0039920163592
aF654.0222367562359
aF325.94524119946544
aF0.0
aF651.0416666672508
aF335.23298692599036
aF324.88628979864956
aF358.93754486734207
aF336.58700774141545
aF682.5938566557838
aF1279.1813239572311
aF327.01111837805564
aF0.0
aF660.0660066002898
aF323.83419689154584
aF324.46463335486266
aF0.0
aF1612.9032258020247
aF652.9546196544992
aF0.0
aF0.0
aF341.29692832750055
aF327.97638570020166
aF1378.3597518997146
aF654.450261779818
aF331.56498673721825
aF1015.916017609451
aF670.4659738523484
aF1626.5452179517172
aF1998.667554959296
aF1604.106512667307
aF347.7051460363218
aF324.46463335504916
aF2047.0829068515138
aF0.0
aF2281.616688393538
aF1019.7144799452641
aF1290.7389480519207
aF975.2925877768599
aF0.0
aF324.14910858991107
aF0.0
aF0.0
aF0.0
aF0.0
aF0.0
aF1714.6776405984901
aF0.0
aF973.3939000649394
aF1083.0324909748745
aF322.8931223767422
aF988.793671719915
aF322.2687721556816
aF651.8904823985587
aF1322.751322754684
aF998.3361064891164
aF0.0
aF0.0
aF0.0
aF1953.1249999949916
asS'f_138'
p23
(lp24
F671.1409395975413
aF2578.1501772473066
aF0.0
aF665.3359946775728
aF981.0333551343539
aF0.0
aF0.0
aF976.5625000008762
aF1005.6989607779713
aF974.6588693959487
aF1794.6877243310016
aF336.58700774141545
aF1365.1877133159103
aF1279.1813239572311
aF0.0
aF645.1612903231938
aF660.0660066002898
aF0.0
aF324.46463335486266
aF1323.1888852180778
aF1935.483870964482
aF1305.9092393131527
aF2036.6598777956226
aF0.0
aF1023.8907849825017
aF327.97638570020166
aF344.5899379738325
aF327.225130889909
aF331.56498673721825
aF0.0
aF335.2329869261742
aF650.6180871827564
aF1665.5562957976474
aF962.4639076034458
aF0.0
aF0.0
aF1023.5414534279275
aF648.298217179804
aF1303.7809648022323
aF339.9048266484213
aF645.3694740239075
aF325.0975292589533
aF0.0
aF324.14910858991107
aF342.2313483914018
aF0.0
aF637.9585326955278
aF0.0
aF0.0
aF685.8710562415778
aF325.62683165141266
aF973.3939000649394
aF361.0108303249581
aF322.8931223767422
aF0.0
aF0.0
aF325.94524119927934
aF330.68783068761905
aF0.0
aF0.0
aF323.72936225314555
aF0.0
aF976.5624999995669
asS'f_1968'
p25
(lp26
F1006.7114093963121
aF0.0
aF0.0
aF0.0
aF327.01111837811794
aF0.0
aF0.0
aF325.5208333336254
aF1005.6989607779713
aF974.6588693959487
aF0.0
aF336.58700774141545
aF682.5938566557838
aF639.590661976581
aF0.0
aF322.5806451615969
aF330.0330033001449
aF0.0
aF0.0
aF661.5944426069343
aF645.1612903228621
aF326.4773098272496
aF2036.6598777956226
aF0.0
aF0.0
aF0.0
aF2067.5396278386106
aF654.450261779818
aF994.6949602116548
aF677.2773450729673
aF1676.164934625539
aF1626.5452179517172
aF1665.5562957976474
aF320.8213025344819
aF347.7051460363218
aF648.9292667100983
aF682.3609689519516
aF324.149108589902
aF1303.7809648022323
aF339.9048266484213
aF0.0
aF325.0975292589533
aF648.9292667102154
aF324.14910858991107
aF1026.6940451742055
aF0.0
aF318.9792663477639
aF329.2723081990804
aF0.0
aF342.9355281207889
aF976.880494954238
aF648.9292667099596
aF0.0
aF322.8931223767422
aF0.0
aF0.0
aF0.0
aF0.0
aF332.77870216303876
aF668.0026720110675
aF323.72936225314555
aF332.1155762204281
aF976.5624999995669
asS'f_2291'
p27
(lp28
F335.57046979877066
aF966.8063164685087
aF1314.0604467845246
aF665.3359946775728
aF654.0222367562359
aF325.94524119946544
aF3600.6546644864648
aF6510.416666672509
aF335.23298692599036
aF1299.545159198732
aF0.0
aF336.58700774141545
aF1023.8907849836758
aF2558.36264790429
aF1635.0555918850773
aF1290.3225806504922
aF330.0330033001449
aF323.83419689154584
aF0.0
aF0.0
aF2903.2258064518537
aF0.0
aF0.0
aF0.0
aF1023.8907849825017
aF0.0
aF3790.489317713254
aF2290.57591622624
aF2320.9549071573633
aF1354.5546901502435
aF670.4659738523484
aF4879.6356538655
aF666.2225183211781
aF320.8213025344819
aF0.0
aF3569.110966906573
aF0.0
aF1620.7455429443546
aF0.0
aF339.9048266484213
aF645.3694740239075
aF975.2925877768599
aF0.0
aF324.14910858991107
aF0.0
aF330.90668431511637
aF0.0
aF1975.633849190293
aF637.5518010839324
aF0.0
aF651.2536633028253
aF648.9292667099596
aF1444.043321304426
aF322.8931223767422
aF0.0
aF4834.031582330098
aF1303.7809648012646
aF661.3756613752381
aF998.3361064891164
aF1002.0040080166015
aF647.4587245062911
aF0.0
aF2278.6458333292157
asS'f_613'
p29
(lp30
F335.57046979877066
aF644.5375443123392
aF328.51511169508615
aF0.0
aF0.0
aF0.0
aF981.9967266778428
aF651.0416666672508
aF335.23298692599036
aF0.0
aF1435.7501794739355
aF0.0
aF341.2969283278919
aF0.0
aF0.0
aF0.0
aF1320.132013204779
aF1619.1709844525785
aF973.3939000645881
aF661.5944426069343
aF322.58064516143105
aF326.4773098272496
aF1357.7732518709468
aF334.7840642783542
aF682.5938566550011
aF327.97638570020166
aF689.179875947665
aF654.450261779818
aF1326.2599469530917
aF0.0
aF670.4659738523484
aF325.3090435913782
aF333.11125916058904
aF2245.7491177383117
aF347.7051460363218
aF0.0
aF1023.5414534279275
aF324.149108589902
aF1303.7809648022323
aF1019.7144799452641
aF0.0
aF650.1950585179065
aF0.0
aF1620.7455429443999
aF1026.6940451742055
aF992.7200529453492
aF0.0
aF658.5446163981608
aF0.0
aF1371.742112487519
aF1628.1341582518842
aF648.9292667099596
aF722.0216606499162
aF0.0
aF1318.3915622974137
aF0.0
aF651.8904823985587
aF661.3756613752381
aF332.77870216303876
aF1670.0066800223567
aF647.4587245062911
aF0.0
aF0.0
asS'f_960'
p31
(lp32
F1677.852348988516
aF644.5375443123392
aF1314.0604467845246
aF0.0
aF981.0333551343539
aF0.0
aF981.9967266778428
aF0.0
aF0.0
aF0.0
aF717.8750897346841
aF1009.7610232242465
aF682.5938566557838
aF0.0
aF327.01111837805564
aF0.0
aF1650.1650164954756
aF0.0
aF648.9292667097253
aF992.3916639104016
aF645.1612903228621
aF326.4773098272496
aF1357.7732518709468
aF334.7840642783542
aF0.0
aF0.0
aF1722.949689863682
aF327.225130889909
aF0.0
aF677.2773450729673
aF670.4659738523484
aF0.0
aF333.11125916058904
aF962.4639076034458
aF695.4102920726436
aF0.0
aF682.3609689519516
aF0.0
aF977.8357235985638
aF339.9048266484213
aF322.68473701195376
aF1300.3901170399497
aF324.4646333551077
aF2917.3419773081687
aF1711.156741951566
aF661.8133686302327
aF0.0
aF658.5446163981608
aF0.0
aF1714.6776405984901
aF976.880494954238
aF648.9292667099596
aF1805.0541516190488
aF645.7862447534844
aF1647.9894528612826
aF0.0
aF977.8357235978381
aF0.0
aF332.77870216303876
aF1336.005344026385
aF647.4587245062911
aF0.0
aF0.0
asS'f_2520'
p33
(lp34
F671.1409395975413
aF0.0
aF657.0302233901723
aF332.6679973387864
aF0.0
aF977.8357235983965
aF654.6644844518952
aF651.0416666672508
aF335.23298692599036
aF649.7725795972991
aF717.8750897346841
aF673.1740154828309
aF0.0
aF639.590661976581
aF0.0
aF1935.483870965477
aF0.0
aF647.6683937830917
aF0.0
aF0.0
aF322.58064516143105
aF3264.7730982724966
aF339.4433129666569
aF0.0
aF0.0
aF2623.811085599527
aF0.0
aF327.225130889909
aF663.1299734744365
aF677.2773450729673
aF0.0
aF325.3090435913782
aF666.2225183211781
aF0.0
aF0.0
aF648.9292667100983
aF0.0
aF2269.043760126221
aF325.94524119952126
aF679.8096532968426
aF0.0
aF2275.6827048095706
aF648.9292667102154
aF972.4473257697333
aF684.4626967828036
aF330.90668431511637
aF637.9585326955278
aF0.0
aF1593.8795027047609
aF0.0
aF1302.5073266097938
aF324.4646333549798
aF1444.043321304426
aF0.0
aF988.793671719915
aF1289.0750886268268
aF1303.7809648012646
aF2314.8148148101777
aF998.3361064891164
aF668.0026720110675
aF971.1880867594368
aF0.0
aF976.5624999995669
asS'f_1086'
p35
(lp36
F0.0
aF644.5375443123392
aF0.0
aF665.3359946775728
aF0.0
aF0.0
aF981.9967266778428
aF651.0416666672508
aF335.23298692599036
aF324.88628979864956
aF717.8750897346841
aF0.0
aF341.2969283278919
aF0.0
aF0.0
aF322.5806451615969
aF660.0660066002898
aF0.0
aF324.46463335486266
aF330.79722130346715
aF0.0
aF0.0
aF339.4433129666569
aF334.7840642783542
aF0.0
aF0.0
aF0.0
aF327.225130889909
aF663.1299734744365
aF338.6386725364836
aF335.2329869261742
aF325.3090435913782
aF0.0
aF0.0
aF0.0
aF0.0
aF0.0
aF324.149108589902
aF0.0
aF339.9048266484213
aF0.0
aF325.0975292589533
aF973.3939000653234
aF1296.5964343637688
aF684.4626967828036
aF330.90668431511637
aF0.0
aF987.8169245972413
aF0.0
aF342.9355281207889
aF651.2536633028253
aF324.4646333549798
aF1083.0324909748745
aF645.7862447534844
aF659.1957811466099
aF0.0
aF0.0
aF330.68783068761905
aF665.5574043260775
aF0.0
aF323.72936225314555
aF0.0
aF325.52083333318893
asS'f_755'
p37
(lp38
F335.57046979877066
aF0.0
aF0.0
aF0.0
aF0.0
aF0.0
aF654.6644844518952
aF325.5208333336254
aF0.0
aF324.88628979864956
aF717.8750897346841
aF0.0
aF0.0
aF0.0
aF0.0
aF0.0
aF660.0660066002898
aF0.0
aF1297.8585334235793
aF0.0
aF0.0
aF0.0
aF0.0
aF334.7840642783542
aF0.0
aF0.0
aF0.0
aF0.0
aF663.1299734744365
aF0.0
aF0.0
aF0.0
aF0.0
aF320.8213025344819
aF347.7051460363218
aF0.0
aF0.0
aF648.298217179804
aF0.0
aF0.0
aF0.0
aF0.0
aF324.4646333551077
aF0.0
aF684.4626967828036
aF330.90668431511637
aF318.9792663477639
aF658.5446163981608
aF0.0
aF342.9355281207889
aF0.0
aF324.4646333549798
aF722.0216606499162
aF0.0
aF0.0
aF322.2687721556816
aF0.0
aF0.0
aF0.0
aF334.00133600553374
aF0.0
aF0.0
aF0.0
asS'f_194'
p39
(lp40
F1342.2818791993525
aF322.2687721561696
aF328.51511169508615
aF0.0
aF981.0333551343539
aF325.94524119946544
aF327.3322422259476
aF651.0416666672508
aF335.23298692599036
aF974.6588693959487
aF358.93754486734207
aF1009.7610232242465
aF341.2969283278919
aF959.3859929648717
aF327.01111837805564
aF322.5806451615969
aF660.0660066002898
aF323.83419689154584
aF324.46463335486266
aF330.79722130346715
aF0.0
aF652.9546196544992
aF1357.7732518709468
aF334.7840642783542
aF0.0
aF0.0
aF2067.5396278386106
aF0.0
aF1326.2599469530917
aF338.6386725364836
aF1005.6989607785226
aF1301.2361743696522
aF333.11125916058904
aF641.6426050689638
aF695.4102920726436
aF648.9292667100983
aF1023.5414534279275
aF324.149108589902
aF1629.7262059924221
aF679.8096532968426
aF1290.7389480519207
aF650.1950585179065
aF648.9292667102154
aF648.2982171798221
aF684.4626967828036
aF0.0
aF0.0
aF0.0
aF0.0
aF685.8710562415778
aF651.2536633028253
aF0.0
aF1083.0324909748745
aF968.6793671302268
aF659.1957811466099
aF644.5375443113631
aF325.94524119927934
aF330.68783068761905
aF665.5574043260775
aF1002.0040080166015
aF0.0
aF664.2311524408562
aF325.52083333318893
asS'f_2459'
p41
(lp42
F2348.993288588192
aF2255.8814050901115
aF1971.0906701663368
aF1663.339986688641
aF3597.1223021603378
aF0.0
aF1963.9934533515207
aF2604.166666666932
aF1005.6989607779713
aF1624.4314489880805
aF1794.6877243310016
aF2019.5220464442102
aF1365.1877133159103
aF2238.567316914982
aF0.0
aF1612.903225802854
aF3300.3300330014495
aF323.83419689154584
aF1946.7878001250476
aF1323.1888852180778
aF3548.387096776768
aF1305.9092393131527
aF4412.7630685697795
aF1673.9203213864462
aF1706.4846416320745
aF327.97638570020166
aF6547.208821501722
aF327.225130889909
aF2984.0848806339095
aF4402.302742977519
aF3687.5628561889826
aF4879.6356538655
aF3997.335109929188
aF4812.319538012126
aF695.4102920726436
aF4218.040233618736
aF2729.4438758056363
aF972.4473257697061
aF2281.616688393538
aF2379.3337865357057
aF2904.162633106557
aF3250.975292589533
aF3893.575600263357
aF2917.3419773081687
aF2395.6194387365467
aF0.0
aF4146.730462523975
aF329.2723081990804
aF318.7759005419662
aF3086.419753086009
aF1953.7609899043327
aF4542.504866973846
aF2888.0866425973686
aF2583.1449790118836
aF659.1957811466099
aF2578.1501772434026
aF1629.7262059912125
aF2314.8148148101777
aF665.5574043260775
aF2672.0106880421454
aF2913.5642602772805
aF996.3467286612845
aF3906.250000000338
asS'f_57'
p43
(lp44
F6375.838926175576
aF4189.49403803328
aF2628.120893558599
aF2328.67598136833
aF3270.1111837811795
aF325.94524119946544
aF4582.651391167432
aF1627.6041666629494
aF4358.028830041075
aF649.7725795972991
aF11127.063890888747
aF2692.6960619291826
aF6143.344709899883
aF0.0
aF2943.100065401461
aF967.7419354847908
aF14191.419141951375
aF6476.683937830917
aF6813.757300453149
aF6285.147204764824
aF2903.2258064518537
aF3591.2504081007846
aF10183.299388999709
aF4686.976899901219
aF5460.750853235666
aF1639.881928495792
aF3445.8993797383255
aF5890.052356016281
aF3647.2148541104552
aF1354.5546901502435
aF6704.6597385234845
aF325.3090435913782
aF2331.7788141209444
aF6416.426050689639
aF5215.577190539298
aF1622.3231667700854
aF3411.8048447597585
aF648.298217179804
aF10104.302477186195
aF3399.048266484214
aF1936.1084220676166
aF5201.560468139117
aF2595.717066838798
aF21393.841166899074
aF6160.164271043056
aF10919.920582433577
aF1275.9170653951144
aF7902.5353967716455
aF956.3277016258987
aF1371.742112487519
aF12048.192771140593
aF3244.6463335497983
aF10469.314079422638
aF4520.5037132785
aF15161.502966420258
aF966.8063164670448
aF8148.631029976799
aF330.68783068761905
aF3660.5657237944856
aF8350.033400133032
aF3561.0229847856313
aF1328.4623048859385
aF976.5624999995669
asS'f_1577'
p45
(lp46
F18120.805369084515
aF966.8063164685087
aF4599.211563735386
aF4990.019960076505
aF2289.077828643705
aF0.0
aF654.6644844518952
aF0.0
aF15755.950385465032
aF5198.180636774259
aF1435.7501794739355
aF18512.28542572967
aF5460.750853241929
aF0.0
aF6540.222367561114
aF1290.3225806504922
aF1650.1650164954756
aF10038.86010363895
aF2271.2524334809423
aF33079.722130346716
aF3225.806451614311
aF1305.9092393131527
aF0.0
aF4686.976899901219
aF25938.566552863984
aF1311.9055428049799
aF4479.669193663111
aF8180.62827224252
aF13262.599469530918
aF5418.21876057943
aF9051.290647003503
aF2277.1633051365434
aF11325.782811496058
aF2566.5704202738143
aF7301.808066763865
aF1622.3231667700854
aF10917.775503265955
aF2917.3419773080873
aF4563.233376797445
aF0.0
aF4840.271055174174
aF4876.462938879129
aF21739.130434758157
aF972.4473257697333
aF11635.865845344677
aF330.90668431511637
aF0.0
aF1317.0892328005114
aF956.3277016258987
aF1714.6776405984901
aF7163.79029633315
aF973.3939000649394
aF0.0
aF968.6793671302268
aF0.0
aF322.2687721556816
aF325.94524119927934
aF12566.137566169496
aF2662.2296173021937
aF668.0026720110675
aF12625.445127912839
aF18930.587844518977
aF0.0
asS'f_2193'
p47
(lp48
F0.0
aF0.0
aF0.0
aF332.6679973387864
aF0.0
aF0.0
aF654.6644844518952
aF0.0
aF1005.6989607779713
aF324.88628979864956
aF358.93754486734207
aF0.0
aF0.0
aF0.0
aF327.01111837805564
aF645.1612903231938
aF330.0330033001449
aF323.83419689154584
aF0.0
aF0.0
aF0.0
aF0.0
aF678.8866259333138
aF0.0
aF0.0
aF0.0
aF344.5899379738325
aF327.225130889909
aF331.56498673721825
aF338.6386725364836
aF335.2329869261742
aF0.0
aF333.11125916058904
aF0.0
aF1738.5257301760792
aF0.0
aF0.0
aF0.0
aF0.0
aF0.0
aF0.0
aF0.0
aF0.0
aF0.0
aF0.0
aF0.0
aF0.0
aF0.0
aF0.0
aF0.0
aF0.0
aF324.4646333549798
aF0.0
aF0.0
aF0.0
aF0.0
aF0.0
aF330.68783068761905
aF0.0
aF334.00133600553374
aF323.72936225314555
aF664.2311524408562
aF0.0
asS'f_1009'
p49
(lp50
F0.0
aF0.0
aF3613.6662286469927
aF6320.6919494358835
aF327.01111837811794
aF0.0
aF0.0
aF0.0
aF670.4659738519807
aF0.0
aF0.0
aF7741.501178055769
aF1365.1877133159103
aF0.0
aF0.0
aF0.0
aF330.0330033001449
aF0.0
aF324.46463335486266
aF661.5944426069343
aF1290.3225806498288
aF0.0
aF678.8866259333138
aF0.0
aF5802.047781564252
aF655.9527714004033
aF2067.5396278386106
aF0.0
aF331.56498673721825
aF0.0
aF335.2329869261742
aF325.3090435913782
aF1998.667554959296
aF320.8213025344819
aF347.7051460363218
aF324.46463335504916
aF0.0
aF0.0
aF325.94524119952126
aF0.0
aF1613.4236850546365
aF0.0
aF648.9292667102154
aF0.0
aF1368.925393569962
aF0.0
aF0.0
aF0.0
aF0.0
aF0.0
aF976.880494954238
aF0.0
aF361.0108303249581
aF322.8931223767422
aF0.0
aF0.0
aF0.0
aF1653.4391534328358
aF4326.12312812268
aF334.00133600553374
aF0.0
aF996.3467286612845
aF0.0
asS'f_424'
p51
(lp52
F2348.993288588192
aF322.2687721561696
aF328.51511169508615
aF332.6679973387864
aF0.0
aF0.0
aF327.3322422259476
aF0.0
aF1340.9319477082272
aF0.0
aF717.8750897346841
aF673.1740154828309
aF0.0
aF0.0
aF0.0
aF0.0
aF1650.1650164954756
aF0.0
aF0.0
aF661.5944426069343
aF322.58064516143105
aF652.9546196544992
aF0.0
aF0.0
aF0.0
aF327.97638570020166
aF1033.7698139214976
aF0.0
aF331.56498673721825
aF338.6386725364836
aF1676.164934625539
aF0.0
aF1998.667554959296
aF320.8213025344819
aF7301.808066763865
aF0.0
aF0.0
aF0.0
aF651.8904823990425
aF2379.3337865357057
aF0.0
aF325.0975292589533
aF973.3939000653234
aF0.0
aF0.0
aF0.0
aF318.9792663477639
aF0.0
aF0.0
aF342.9355281207889
aF3581.895148166575
aF324.4646333549798
aF1083.0324909748745
aF968.6793671302268
aF329.59789057330494
aF0.0
aF325.94524119927934
aF330.68783068761905
aF332.77870216303876
aF1670.0066800223567
aF323.72936225314555
aF0.0
aF0.0
asS'f_221'
p53
(lp54
F671.1409395975413
aF322.2687721561696
aF0.0
aF0.0
aF654.0222367562359
aF0.0
aF1309.3289689079554
aF325.5208333336254
aF0.0
aF0.0
aF1076.8126346020265
aF336.58700774141545
aF341.2969283278919
aF639.590661976581
aF0.0
aF0.0
aF1650.1650164954756
aF0.0
aF0.0
aF1653.9861065120745
aF0.0
aF326.4773098272496
aF678.8866259333138
aF0.0
aF341.29692832750055
aF327.97638570020166
aF0.0
aF654.450261779818
aF663.1299734744365
aF338.6386725364836
aF0.0
aF0.0
aF0.0
aF1604.106512667307
aF347.7051460363218
aF0.0
aF682.3609689519516
aF324.149108589902
aF977.8357235985638
aF679.8096532968426
aF322.68473701195376
aF0.0
aF973.3939000653234
aF324.14910858991107
aF1026.6940451742055
aF992.7200529453492
aF0.0
aF1317.0892328005114
aF318.7759005419662
aF685.8710562415778
aF0.0
aF648.9292667099596
aF361.0108303249581
aF322.8931223767422
aF1647.9894528612826
aF0.0
aF651.8904823985587
aF0.0
aF998.3361064891164
aF1670.0066800223567
aF647.4587245062911
aF0.0
aF0.0
asS'f_224'
p55
(lp56
F0.0
aF322.2687721561696
aF1314.0604467845246
aF1996.0079840284857
aF0.0
aF325.94524119946544
aF327.3322422259476
aF1627.6041666629494
aF335.23298692599036
aF324.88628979864956
aF358.93754486734207
aF336.58700774141545
aF682.5938566557838
aF0.0
aF1308.0444735163835
aF967.7419354847908
aF0.0
aF323.83419689154584
aF0.0
aF661.5944426069343
aF967.7419354842933
aF652.9546196544992
aF339.4433129666569
aF334.7840642783542
aF1023.8907849825017
aF983.9291571006052
aF689.179875947665
aF654.450261779818
aF994.6949602116548
aF0.0
aF0.0
aF1301.2361743696522
aF333.11125916058904
aF320.8213025344819
aF0.0
aF0.0
aF341.1804844759758
aF648.298217179804
aF0.0
aF679.8096532968426
aF1290.7389480519207
aF1625.487646289596
aF0.0
aF1944.894651535342
aF1711.156741951566
aF330.90668431511637
aF637.9585326955278
aF1317.0892328005114
aF3825.3108065056226
aF685.8710562415778
aF651.2536633028253
aF648.9292667099596
aF722.0216606499162
aF0.0
aF1977.587343435636
aF1611.3438607732821
aF1303.7809648012646
aF992.0634920628572
aF2995.0083194662907
aF334.00133600553374
aF971.1880867594368
aF664.2311524408562
aF976.5624999995669
asS'f_588'
p57
(lp58
F671.1409395975413
aF0.0
aF2299.605781862468
aF332.6679973387864
aF1635.0555918853886
aF325.94524119946544
aF0.0
aF0.0
aF1340.9319477082272
aF649.7725795972991
aF3230.4379038049374
aF3029.2830696716687
aF3754.266211607897
aF959.3859929648717
aF0.0
aF645.1612903231938
aF1320.132013204779
aF0.0
aF0.0
aF2977.174991730152
aF1935.483870964482
aF2285.341168787632
aF2715.546503731096
aF1339.1362571176767
aF0.0
aF0.0
aF1378.3597518997146
aF327.225130889909
aF663.1299734744365
aF0.0
aF2681.8638954072608
aF650.6180871827564
aF1998.667554959296
aF320.8213025344819
aF347.7051460363218
aF3893.5756002626545
aF4094.1658137138807
aF324.149108589902
aF0.0
aF2039.4289598862033
aF322.68473701195376
aF0.0
aF0.0
aF0.0
aF3764.544832306509
aF0.0
aF1594.8963317337461
aF0.0
aF0.0
aF1714.6776405984901
aF3581.895148166575
aF0.0
aF722.0216606499162
aF1614.4656118785756
aF0.0
aF1289.0750886268268
aF0.0
aF661.3756613752381
aF0.0
aF0.0
aF0.0
aF0.0
aF3580.729166666114
asS'f_587'
p59
(lp60
F0.0
aF0.0
aF1314.0604467845246
aF332.6679973387864
aF327.01111837811794
aF325.94524119946544
aF1309.3289689079554
aF1953.1249999976105
aF0.0
aF324.88628979864956
aF0.0
aF336.58700774141545
aF0.0
aF959.3859929648717
aF327.01111837805564
aF322.5806451615969
aF0.0
aF0.0
aF324.46463335486266
aF0.0
aF1290.3225806498288
aF1632.3865491310555
aF0.0
aF0.0
aF682.5938566550011
aF327.97638570020166
aF689.179875947665
aF654.450261779818
aF994.6949602116548
aF338.6386725364836
aF0.0
aF1951.8542615441304
aF333.11125916058904
aF0.0
aF0.0
aF648.9292667100983
aF341.1804844759758
aF1296.5964343637327
aF0.0
aF679.8096532968426
aF322.68473701195376
aF650.1950585179065
aF0.0
aF0.0
aF0.0
aF0.0
aF0.0
aF658.5446163981608
aF0.0
aF0.0
aF0.0
aF324.4646333549798
aF722.0216606499162
aF0.0
aF329.59789057330494
aF1611.3438607732821
aF1303.7809648012646
aF1322.751322754684
aF665.5574043260775
aF334.00133600553374
aF0.0
aF332.1155762204281
aF2278.6458333292157
asS'f_1650'
p61
(lp62
F671.1409395975413
aF644.5375443123392
aF328.51511169508615
aF0.0
aF0.0
aF0.0
aF0.0
aF0.0
aF335.23298692599036
aF324.88628979864956
aF0.0
aF336.58700774141545
aF682.5938566557838
aF0.0
aF0.0
aF322.5806451615969
aF0.0
aF0.0
aF324.46463335486266
aF330.79722130346715
aF0.0
aF0.0
aF0.0
aF0.0
aF341.29692832750055
aF655.9527714004033
aF344.5899379738325
aF0.0
aF331.56498673721825
aF338.6386725364836
aF0.0
aF0.0
aF333.11125916058904
aF1283.2852101420099
aF0.0
aF0.0
aF0.0
aF0.0
aF0.0
aF0.0
aF0.0
aF325.0975292589533
aF648.9292667102154
aF324.14910858991107
aF684.4626967828036
aF330.90668431511637
aF0.0
aF658.5446163981608
aF0.0
aF0.0
aF0.0
aF324.4646333549798
aF361.0108303249581
aF322.8931223767422
aF988.793671719915
aF322.2687721556816
aF651.8904823985587
aF0.0
aF0.0
aF334.00133600553374
aF323.72936225314555
aF332.1155762204281
aF0.0
asS'f_1794'
p63
(lp64
F335.57046979877066
aF0.0
aF328.51511169508615
aF0.0
aF0.0
aF0.0
aF0.0
aF0.0
aF670.4659738519807
aF0.0
aF0.0
aF673.1740154828309
aF0.0
aF0.0
aF327.01111837805564
aF322.5806451615969
aF660.0660066002898
aF0.0
aF0.0
aF330.79722130346715
aF0.0
aF326.4773098272496
aF339.4433129666569
aF669.5681285567084
aF0.0
aF327.97638570020166
aF0.0
aF0.0
aF331.56498673721825
aF0.0
aF670.4659738523484
aF0.0
aF1332.4450366465949
aF320.8213025344819
aF1043.1154381089657
aF648.9292667100983
aF341.1804844759758
aF0.0
aF651.8904823990425
aF0.0
aF0.0
aF325.0975292589533
aF648.9292667102154
aF0.0
aF684.4626967828036
aF0.0
aF637.9585326955278
aF0.0
aF0.0
aF1028.8065843623667
aF651.2536633028253
aF0.0
aF1083.0324909748745
aF322.8931223767422
aF329.59789057330494
aF0.0
aF0.0
aF661.3756613752381
aF332.77870216303876
aF668.0026720110675
aF0.0
aF332.1155762204281
aF325.52083333318893
asS'f_2166'
p65
(lp66
F335.57046979877066
aF0.0
aF0.0
aF998.0039920163592
aF0.0
aF0.0
aF0.0
aF0.0
aF670.4659738519807
aF0.0
aF358.93754486734207
aF0.0
aF341.2969283278919
aF0.0
aF0.0
aF322.5806451615969
aF0.0
aF0.0
aF0.0
aF661.5944426069343
aF0.0
aF0.0
aF2036.6598777956226
aF334.7840642783542
aF0.0
aF0.0
aF0.0
aF0.0
aF0.0
aF677.2773450729673
aF335.2329869261742
aF0.0
aF0.0
aF0.0
aF1390.8205841497115
aF324.46463335504916
aF0.0
aF0.0
aF0.0
aF0.0
aF0.0
aF0.0
aF0.0
aF324.14910858991107
aF0.0
aF0.0
aF0.0
aF329.2723081990804
aF0.0
aF0.0
aF0.0
aF0.0
aF0.0
aF0.0
aF0.0
aF0.0
aF0.0
aF0.0
aF0.0
aF0.0
aF0.0
aF0.0
aF325.52083333318893
asS'f_285'
p67
(lp68
F0.0
aF0.0
aF328.51511169508615
aF0.0
aF0.0
aF325.94524119946544
aF1636.6612111245317
aF976.5625000008762
aF0.0
aF324.88628979864956
aF717.8750897346841
aF0.0
aF0.0
aF639.590661976581
aF1308.0444735163835
aF322.5806451615969
aF330.0330033001449
aF0.0
aF0.0
aF330.79722130346715
aF0.0
aF0.0
aF339.4433129666569
aF0.0
aF341.29692832750055
aF0.0
aF0.0
aF0.0
aF331.56498673721825
aF0.0
aF335.2329869261742
aF0.0
aF0.0
aF320.8213025344819
aF0.0
aF0.0
aF0.0
aF648.298217179804
aF0.0
aF679.8096532968426
aF322.68473701195376
aF650.1950585179065
aF0.0
aF324.14910858991107
aF0.0
aF0.0
aF0.0
aF0.0
aF318.7759005419662
aF0.0
aF0.0
aF648.9292667099596
aF722.0216606499162
aF0.0
aF0.0
aF1933.612632929989
aF0.0
aF330.68783068761905
aF332.77870216303876
aF334.00133600553374
aF647.4587245062911
aF332.1155762204281
aF325.52083333318893
asS'f_1270'
p69
(lp70
F2013.4228187883543
aF966.8063164685087
aF0.0
aF0.0
aF327.01111837811794
aF0.0
aF327.3322422259476
aF1302.0833333386433
aF335.23298692599036
aF649.7725795972991
aF0.0
aF336.58700774141545
aF2047.781569963009
aF0.0
aF327.01111837805564
aF645.1612903231938
aF1980.1980197966705
aF971.5025906746375
aF3893.5756002604166
aF1323.1888852180778
aF645.1612903228621
aF0.0
aF1357.7732518709468
aF1339.1362571176767
aF341.29692832750055
aF0.0
aF0.0
aF981.6753926697271
aF0.0
aF0.0
aF335.2329869261742
aF325.3090435913782
aF0.0
aF0.0
aF347.7051460363218
aF0.0
aF341.1804844759758
aF324.149108589902
aF0.0
aF339.9048266484213
aF0.0
aF0.0
aF0.0
aF0.0
aF0.0
aF330.90668431511637
aF0.0
aF0.0
aF0.0
aF0.0
aF0.0
aF324.4646333549798
aF361.0108303249581
aF0.0
aF659.1957811466099
aF0.0
aF0.0
aF0.0
aF332.77870216303876
aF0.0
aF0.0
aF0.0
aF325.52083333318893
asS'f_257'
p71
(lp72
F8389.26174496393
aF2900.418949404501
aF657.0302233901723
aF14637.391882953163
aF4578.1556572978125
aF0.0
aF5564.648117837985
aF2929.687500001593
aF18773.047267808543
aF4223.521767385545
aF4307.250538410389
aF3702.4570851566414
aF1706.4846416340313
aF639.590661976581
aF6213.211249182018
aF3870.9677419412155
aF6930.693069304093
aF5829.015544045765
aF2271.2524334809423
aF12901.091630876257
aF0.0
aF0.0
aF16293.279022343386
aF3013.0565785041226
aF4778.1569965893505
aF1311.9055428049799
aF2412.129565813539
aF5235.602094234381
aF1989.3899204190907
aF12190.992211352192
aF7710.358699305206
aF650.6180871827564
aF2331.7788141209444
aF641.6426050689638
aF31988.873435332764
aF1297.8585334243253
aF341.1804844759758
aF0.0
aF1629.7262059924221
aF679.8096532968426
aF1613.4236850546365
aF1625.487646289596
aF5191.434133677596
aF648.2982171798221
aF2395.6194387365467
aF2647.253474518826
aF956.9377990432918
aF987.8169245972413
aF0.0
aF5829.903978050138
aF3907.5219798190233
aF4218.040233617834
aF1444.043321304426
aF0.0
aF3955.1746868817563
aF0.0
aF0.0
aF1653.4391534328358
aF998.3361064891164
aF3674.014696061934
aF1942.3761735147543
aF4649.61806709022
aF651.0416666663779
asS'f_361'
p73
(lp74
F1006.7114093963121
aF966.8063164685087
aF3613.6662286469927
aF11310.711909554717
aF8502.289077826905
aF325.94524119946544
aF0.0
aF2604.166666666932
aF5363.727790811581
aF3898.6354775858617
aF6460.875807609875
aF2356.109054186696
aF5802.0477815709055
aF4796.929964819272
aF654.0222367561113
aF1612.903225802854
aF660.0660066002898
aF1295.3367875703038
aF1622.323166769153
aF3969.5666556437104
aF4838.709677416336
aF1632.3865491310555
aF3733.876442634306
aF4352.1928356217995
aF1365.1877133143448
aF1311.9055428049799
aF1722.949689863682
aF1636.1256544443406
aF331.56498673721825
aF1015.916017609451
aF4358.028830043464
aF650.6180871827564
aF3997.335109929188
aF1924.9278152028094
aF0.0
aF5840.363400388821
aF4435.3462981909415
aF648.298217179804
aF651.8904823990425
aF4078.8579197832187
aF2904.162633106557
aF650.1950585179065
aF1297.8585334245595
aF324.14910858991107
aF5817.932922650565
aF0.0
aF6060.6060606065
aF0.0
aF318.7759005419662
aF8573.388203014267
aF6838.1634646807015
aF2920.181700193786
aF2888.0866425973686
aF1937.3587342563449
aF1318.3915622974137
aF13213.019658424975
aF0.0
aF0.0
aF2995.0083194662907
aF0.0
aF1294.9174490167013
aF332.1155762204281
aF6835.937499998003
asS'f_2284'
p75
(lp76
F335.57046979877066
aF0.0
aF0.0
aF332.6679973387864
aF327.01111837811794
aF0.0
aF0.0
aF0.0
aF335.23298692599036
aF324.88628979864956
aF0.0
aF336.58700774141545
aF682.5938566557838
aF639.590661976581
aF0.0
aF645.1612903231938
aF0.0
aF0.0
aF0.0
aF0.0
aF322.58064516143105
aF326.4773098272496
aF339.4433129666569
aF0.0
aF341.29692832750055
aF0.0
aF0.0
aF0.0
aF331.56498673721825
aF0.0
aF335.2329869261742
aF325.3090435913782
aF0.0
aF641.6426050689638
aF0.0
aF0.0
aF0.0
aF0.0
aF0.0
aF0.0
aF0.0
aF0.0
aF0.0
aF0.0
aF0.0
aF0.0
aF318.9792663477639
aF0.0
aF0.0
aF0.0
aF0.0
aF0.0
aF361.0108303249581
aF322.8931223767422
aF0.0
aF644.5375443113631
aF0.0
aF0.0
aF0.0
aF334.00133600553374
aF647.4587245062911
aF0.0
aF651.0416666663779
asS'f_2735'
p77
(lp78
F0.0
aF322.2687721561696
aF328.51511169508615
aF332.6679973387864
aF1635.0555918853886
aF325.94524119946544
aF0.0
aF0.0
aF335.23298692599036
aF324.88628979864956
aF358.93754486734207
aF673.1740154828309
aF682.5938566557838
aF639.590661976581
aF0.0
aF1290.3225806504922
aF0.0
aF647.6683937830917
aF324.46463335486266
aF330.79722130346715
aF967.7419354842933
aF979.431929481749
aF678.8866259333138
aF2343.4884499452846
aF0.0
aF327.97638570020166
aF689.179875947665
aF327.225130889909
aF0.0
aF1354.5546901502435
aF1005.6989607785226
aF325.3090435913782
aF666.2225183211781
aF0.0
aF0.0
aF1297.8585334243253
aF1364.7219379082444
aF324.149108589902
aF0.0
aF0.0
aF1613.4236850546365
aF0.0
aF324.4646333551077
aF0.0
aF684.4626967828036
aF0.0
aF1594.8963317337461
aF0.0
aF0.0
aF1714.6776405984901
aF0.0
aF0.0
aF0.0
aF322.8931223767422
aF0.0
aF0.0
aF0.0
aF0.0
aF0.0
aF0.0
aF0.0
aF332.1155762204281
aF651.0416666663779
asS'f_2732'
p79
(lp80
F5033.557046976223
aF1933.612632932917
aF4270.696452039255
aF1330.6719893593784
aF13407.455853545485
aF1629.7262059921432
aF327.3322422259476
aF1953.1249999976105
aF7039.8927254468645
aF3248.862897986496
aF4666.188083278873
aF10770.784247759557
aF16382.252559682358
aF4796.929964819272
aF654.0222367561113
aF2580.6451612907235
aF2970.297029700255
aF971.5025906746375
aF973.3939000645881
aF10254.713860408534
aF3548.387096776768
aF4570.682337585649
aF2715.546503731096
aF12721.794442617927
aF341.29692832750055
aF2623.811085599527
aF4135.0792556881825
aF3599.4764397900403
aF994.6949602116548
aF2370.470707752154
aF13744.552464016864
aF1301.2361743696522
aF8660.892738171078
aF1924.9278152028094
aF695.4102920726436
aF22388.059701466398
aF13988.399863559507
aF972.4473257697061
aF4889.178617987634
aF4078.8579197832187
aF3872.216844145498
aF325.0975292589533
aF324.4646333551077
aF0.0
aF4106.776180698999
aF0.0
aF20733.652312569142
aF0.0
aF318.7759005419662
aF9945.130315501789
aF5861.2829697233565
aF2271.252433481762
aF1083.0324909748745
aF2260.251856634114
aF329.59789057330494
aF3544.956493713523
aF0.0
aF661.3756613752381
aF0.0
aF0.0
aF0.0
aF996.3467286612845
aF9765.624999995669
asS'f_563'
p81
(lp82
F0.0
aF644.5375443123392
aF328.51511169508615
aF665.3359946775728
aF2943.1000654020213
aF325.94524119946544
aF0.0
aF325.5208333336254
aF1005.6989607779713
aF324.88628979864956
aF1435.7501794739355
aF673.1740154828309
aF341.2969283278919
aF1598.9766549363662
aF0.0
aF645.1612903231938
aF660.0660066002898
aF0.0
aF648.9292667097253
aF330.79722130346715
aF2258.064516126939
aF326.4773098272496
aF678.8866259333138
aF2008.7043856658654
aF0.0
aF0.0
aF344.5899379738325
aF654.450261779818
aF0.0
aF677.2773450729673
aF2346.63090848002
aF650.6180871827564
aF0.0
aF641.6426050689638
aF0.0
aF1622.3231667700854
aF1364.7219379082444
aF324.149108589902
aF0.0
aF339.9048266484213
aF968.0542110358613
aF0.0
aF0.0
aF324.14910858991107
aF342.2313483914018
aF0.0
aF956.9377990432918
aF0.0
aF318.7759005419662
aF1371.742112487519
aF325.62683165141266
aF0.0
aF361.0108303249581
aF1291.5724895110775
aF0.0
aF1611.3438607732821
aF325.94524119927934
aF0.0
aF332.77870216303876
aF0.0
aF0.0
aF0.0
aF1953.1249999949916
asS'f_1715'
p83
(lp84
F0.0
aF322.2687721561696
aF0.0
aF0.0
aF1635.0555918853886
aF325.94524119946544
aF0.0
aF651.0416666672508
aF335.23298692599036
aF0.0
aF717.8750897346841
aF336.58700774141545
aF682.5938566557838
aF1279.1813239572311
aF327.01111837805564
aF967.7419354847908
aF660.0660066002898
aF0.0
aF0.0
aF0.0
aF1612.9032258020247
aF326.4773098272496
aF0.0
aF334.7840642783542
aF341.29692832750055
aF0.0
aF1033.7698139214976
aF0.0
aF0.0
aF338.6386725364836
aF0.0
aF0.0
aF333.11125916058904
aF320.8213025344819
aF0.0
aF648.9292667100983
aF682.3609689519516
aF324.149108589902
aF0.0
aF679.8096532968426
aF0.0
aF325.0975292589533
aF324.4646333551077
aF324.14910858991107
aF342.2313483914018
aF0.0
aF956.9377990432918
aF0.0
aF0.0
aF1028.8065843623667
aF325.62683165141266
aF0.0
aF0.0
aF322.8931223767422
aF0.0
aF644.5375443113631
aF0.0
aF661.3756613752381
aF0.0
aF0.0
aF971.1880867594368
aF0.0
aF651.0416666663779
asS'f_1845'
p85
(lp86
F335.57046979877066
aF0.0
aF0.0
aF0.0
aF0.0
aF0.0
aF654.6644844518952
aF325.5208333336254
aF670.4659738519807
aF0.0
aF0.0
aF336.58700774141545
aF682.5938566557838
aF0.0
aF0.0
aF0.0
aF330.0330033001449
aF0.0
aF0.0
aF330.79722130346715
aF0.0
aF0.0
aF339.4433129666569
aF334.7840642783542
aF682.5938566550011
aF0.0
aF689.179875947665
aF0.0
aF0.0
aF0.0
aF0.0
aF0.0
aF333.11125916058904
aF962.4639076034458
aF347.7051460363218
aF0.0
aF0.0
aF0.0
aF977.8357235985638
aF0.0
aF322.68473701195376
aF0.0
aF0.0
aF324.14910858991107
aF0.0
aF0.0
aF0.0
aF987.8169245972413
aF318.7759005419662
aF685.8710562415778
aF325.62683165141266
aF324.4646333549798
aF361.0108303249581
aF322.8931223767422
aF988.793671719915
aF0.0
aF651.8904823985587
aF0.0
aF0.0
aF334.00133600553374
aF0.0
aF0.0
aF0.0
asS'f_2042'
p87
(lp88
F335.57046979877066
aF0.0
aF1971.0906701663368
aF0.0
aF0.0
aF0.0
aF0.0
aF1627.6041666629494
aF670.4659738519807
aF0.0
aF717.8750897346841
aF2356.109054186696
aF682.5938566557838
aF319.7953309882905
aF327.01111837805564
aF0.0
aF0.0
aF323.83419689154584
aF648.9292667097253
aF992.3916639104016
aF0.0
aF0.0
aF0.0
aF334.7840642783542
aF341.29692832750055
aF0.0
aF344.5899379738325
aF0.0
aF0.0
aF0.0
aF0.0
aF0.0
aF1332.4450366465949
aF320.8213025344819
aF0.0
aF648.9292667100983
aF0.0
aF0.0
aF325.94524119952126
aF0.0
aF322.68473701195376
aF0.0
aF0.0
aF0.0
aF0.0
aF0.0
aF0.0
aF0.0
aF0.0
aF0.0
aF0.0
aF0.0
aF0.0
aF0.0
aF0.0
aF0.0
aF0.0
aF661.3756613752381
aF0.0
aF0.0
aF0.0
aF0.0
aF1302.0833333368976
asS'f_1398'
p89
(lp90
F671.1409395975413
aF0.0
aF0.0
aF332.6679973387864
aF0.0
aF0.0
aF3600.6546644864648
aF0.0
aF0.0
aF324.88628979864956
aF0.0
aF0.0
aF0.0
aF319.7953309882905
aF0.0
aF0.0
aF1320.132013204779
aF971.5025906746375
aF648.9292667097253
aF330.79722130346715
aF0.0
aF326.4773098272496
aF678.8866259333138
aF334.7840642783542
aF341.29692832750055
aF0.0
aF1033.7698139214976
aF981.6753926697271
aF1657.8249336808176
aF1693.1933626770322
aF335.2329869261742
aF0.0
aF333.11125916058904
aF320.8213025344819
aF347.7051460363218
aF648.9292667100983
aF0.0
aF0.0
aF0.0
aF679.8096532968426
aF0.0
aF975.2925877768599
aF0.0
aF1296.5964343637688
aF342.2313483914018
aF0.0
aF318.9792663477639
aF3621.995390190932
aF0.0
aF0.0
aF325.62683165141266
aF324.4646333549798
aF361.0108303249581
aF0.0
aF1318.3915622974137
aF0.0
aF1303.7809648012646
aF0.0
aF332.77870216303876
aF3340.013360055338
aF0.0
aF0.0
aF0.0
asS'f_961'
p91
(lp92
F15100.671140992716
aF7089.912987437781
aF6570.302233901723
aF1663.339986688641
aF2943.1000654020213
aF325.94524119946544
aF15711.94762679134
aF5859.375000003186
aF4693.261816968132
aF2599.0903183871296
aF3230.4379038049374
aF3702.4570851566414
aF5460.750853241929
aF1918.7719859256742
aF2616.088947022365
aF3870.9677419412155
aF16171.61716165356
aF7772.020725390919
aF10058.403634001776
aF3307.9722130346718
aF2903.2258064518537
aF1958.8638589593438
aF8486.082824161023
aF6026.113157008245
aF6143.344709892838
aF2295.834699898282
aF2412.129565813539
aF5235.602094234381
aF9615.384615378274
aF2370.470707752154
aF10727.455581671698
aF1951.8542615441304
aF7328.447701535079
aF13795.316009026605
aF7649.513212801293
aF973.3939000651476
aF4776.526782668004
aF2269.043760126221
aF11408.083442019533
aF5098.572399720914
aF968.0542110358613
aF8777.633289988637
aF10058.403634009372
aF18152.350080989654
aF5475.701574258075
aF2316.346790202657
aF1594.8963317337461
aF13829.43694440537
aF637.5518010839324
aF16117.969821619263
aF3581.895148166575
aF12005.19143417244
aF11191.33574007485
aF8718.11430416896
aF12524.71984182543
aF0.0
aF8800.521512377432
aF4298.941798942204
aF4326.12312812268
aF19706.078824282933
aF7122.0459695712625
aF2656.9246097613122
aF1953.1249999949916
asS'f_1797'
p93
(lp94
F335.57046979877066
aF966.8063164685087
aF657.0302233901723
aF332.6679973387864
aF981.0333551343539
aF325.94524119946544
aF1636.6612111245317
aF1953.1249999976105
aF335.23298692599036
aF0.0
aF358.93754486734207
aF673.1740154828309
aF682.5938566557838
aF319.7953309882905
aF327.01111837805564
aF645.1612903231938
aF330.0330033001449
aF647.6683937830917
aF1622.323166769153
aF330.79722130346715
aF967.7419354842933
aF0.0
aF1697.2165648278858
aF0.0
aF682.5938566550011
aF0.0
aF1033.7698139214976
aF0.0
aF1657.8249336808176
aF677.2773450729673
aF1340.9319477089623
aF0.0
aF333.11125916058904
aF2887.391722809317
aF347.7051460363218
aF0.0
aF341.1804844759758
aF324.149108589902
aF325.94524119952126
aF339.9048266484213
aF322.68473701195376
aF2275.6827048095706
aF1297.8585334245595
aF4213.9384116719375
aF342.2313483914018
aF0.0
aF0.0
aF987.8169245972413
aF0.0
aF0.0
aF0.0
aF1297.8585334240477
aF1805.0541516190488
aF1291.5724895110775
aF1318.3915622974137
aF0.0
aF1303.7809648012646
aF330.68783068761905
aF332.77870216303876
aF3006.0120240487418
aF1618.646811260579
aF332.1155762204281
aF0.0
asS'f_48'
p95
(lp96
F0.0
aF0.0
aF4270.696452039255
aF1996.0079840284857
aF981.0333551343539
aF0.0
aF654.6644844518952
aF325.5208333336254
aF335.23298692599036
aF324.88628979864956
aF0.0
aF3365.8700774141553
aF341.2969283278919
aF0.0
aF327.01111837805564
aF0.0
aF330.0330033001449
aF0.0
aF324.46463335486266
aF992.3916639104016
aF645.1612903228621
aF0.0
aF339.4433129666569
aF0.0
aF4436.860068260764
aF327.97638570020166
aF689.179875947665
aF0.0
aF331.56498673721825
aF1015.916017609451
aF335.2329869261742
aF650.6180871827564
aF2998.001332444242
aF641.6426050689638
aF0.0
aF324.46463335504916
aF341.1804844759758
aF648.298217179804
aF0.0
aF679.8096532968426
aF968.0542110358613
aF325.0975292589533
aF648.9292667102154
aF648.2982171798221
aF0.0
aF0.0
aF0.0
aF0.0
aF0.0
aF1028.8065843623667
aF325.62683165141266
aF973.3939000649394
aF0.0
aF322.8931223767422
aF329.59789057330494
aF0.0
aF0.0
aF1984.1269841215067
aF3327.787021630388
aF2004.008016028953
aF0.0
aF996.3467286612845
aF0.0
asS'f_803'
p97
(lp98
F14765.100671192877
aF17402.513696386002
aF985.5453350852586
aF5655.355954756194
aF2616.088947022863
aF0.0
aF26186.579378054983
aF7161.4583333418295
aF33188.06570567199
aF1949.3177387877636
aF2871.5003589364537
aF1682.9350387017241
aF7167.235494886816
aF319.7953309882905
aF6213.211249182018
aF12580.6451613423
aF14521.45214525257
aF9715.025906746376
aF6489.292667097255
aF16870.658286425267
aF2580.6451612893966
aF652.9546196544992
aF19008.82552608528
aF3013.0565785041226
aF10921.501706514759
aF1639.881928495792
aF10682.288077189904
aF69371.7277486732
aF40119.363395225555
aF92448.35760243096
aF46597.3851827798
aF15614.834092332347
aF4330.446369090837
aF4170.676932951326
aF163073.71349089008
aF9409.474367295395
aF4094.1658137138807
aF6158.833063207108
aF8148.6310299828465
aF10537.049626102142
aF3226.8473701195376
aF3250.975292589533
aF9409.474367297093
aF17179.902755216823
aF3080.082135521528
aF9927.200529453492
aF0.0
aF117550.2140266077
aF0.0
aF32921.81069959137
aF2605.01465320923
aF15898.767034341372
aF19494.584837494913
aF5489.183080401536
aF37903.7574159458
aF1611.3438607732821
aF19556.714471915286
aF992.0634920628572
aF4991.680532440289
aF42084.168336724884
aF5179.669796046211
aF36200.59780803618
aF0.0
asS'f_1654'
p99
(lp100
F335.57046979877066
aF322.2687721561696
aF0.0
aF0.0
aF0.0
aF0.0
aF0.0
aF0.0
aF0.0
aF324.88628979864956
aF0.0
aF0.0
aF0.0
aF0.0
aF0.0
aF0.0
aF0.0
aF0.0
aF0.0
aF330.79722130346715
aF0.0
aF0.0
aF0.0
aF0.0
aF0.0
aF655.9527714004033
aF344.5899379738325
aF0.0
aF0.0
aF677.2773450729673
aF0.0
aF0.0
aF333.11125916058904
aF962.4639076034458
aF347.7051460363218
aF324.46463335504916
aF682.3609689519516
aF0.0
aF0.0
aF0.0
aF0.0
aF325.0975292589533
aF0.0
aF324.14910858991107
aF342.2313483914018
aF330.90668431511637
aF0.0
aF329.2723081990804
aF0.0
aF1028.8065843623667
aF0.0
aF0.0
aF0.0
aF0.0
aF0.0
aF0.0
aF325.94524119927934
aF0.0
aF332.77870216303876
aF334.00133600553374
aF0.0
aF0.0
aF0.0
asS'f_1014'
p101
(lp102
F0.0
aF322.2687721561696
aF328.51511169508615
aF0.0
aF0.0
aF3259.452411994655
aF327.3322422259476
aF651.0416666672508
aF1340.9319477082272
aF324.88628979864956
aF1076.8126346020265
aF0.0
aF0.0
aF0.0
aF0.0
aF322.5806451615969
aF1650.1650164954756
aF0.0
aF0.0
aF0.0
aF0.0
aF1632.3865491310555
aF339.4433129666569
aF334.7840642783542
aF682.5938566550011
aF2295.834699898282
aF0.0
aF1308.9005235637997
aF0.0
aF338.6386725364836
aF335.2329869261742
aF0.0
aF0.0
aF0.0
aF0.0
aF0.0
aF0.0
aF648.298217179804
aF977.8357235985638
aF2379.3337865357057
aF0.0
aF0.0
aF0.0
aF324.14910858991107
aF0.0
aF661.8133686302327
aF1275.9170653951144
aF0.0
aF637.5518010839324
aF685.8710562415778
aF976.880494954238
aF0.0
aF1805.0541516190488
aF645.7862447534844
aF659.1957811466099
aF2255.8814050866954
aF0.0
aF0.0
aF0.0
aF334.00133600553374
aF323.72936225314555
aF664.2311524408562
aF976.5624999995669
asS'f_40'
p103
(lp104
F5704.6979865758985
aF322.2687721561696
aF0.0
aF0.0
aF327.01111837811794
aF0.0
aF654.6644844518952
aF325.5208333336254
aF1676.1649346246202
aF1299.545159198732
aF0.0
aF3702.4570851566414
aF2389.0784982919863
aF0.0
aF981.0333551341671
aF967.7419354847908
aF330.0330033001449
aF3238.3419689154584
aF973.3939000645881
aF6615.9444260693435
aF967.7419354842933
aF0.0
aF678.8866259333138
aF334.7840642783542
aF7167.235494878597
aF655.9527714004033
aF2067.5396278386106
aF654.450261779818
aF994.6949602116548
aF2031.8320352145931
aF3352.3298692617423
aF0.0
aF999.3337774817674
aF962.4639076034458
aF2781.641168288363
aF1297.8585334243253
aF2047.0829068515138
aF648.298217179804
aF2607.5619295940965
aF0.0
aF1613.4236850546365
aF325.0975292589533
aF1946.787800126518
aF0.0
aF3764.544832306509
aF0.0
aF0.0
aF329.2723081990804
aF0.0
aF0.0
aF1953.7609899043327
aF324.4646333549798
aF361.0108303249581
aF322.8931223767422
aF0.0
aF0.0
aF325.94524119927934
aF2976.19047618752
aF332.77870216303876
aF668.0026720110675
aF1942.3761735147543
aF5645.964795744108
aF325.52083333318893
asS'f_1653'
p105
(lp106
F1006.7114093963121
aF966.8063164685087
aF1314.0604467845246
aF332.6679973387864
aF0.0
aF1629.7262059921432
aF0.0
aF0.0
aF0.0
aF649.7725795972991
aF1794.6877243310016
aF336.58700774141545
aF341.2969283278919
aF319.7953309882905
aF1308.0444735163835
aF645.1612903231938
aF660.0660066002898
aF323.83419689154584
aF0.0
aF0.0
aF322.58064516143105
aF4897.159647403552
aF0.0
aF0.0
aF0.0
aF655.9527714004033
aF1033.7698139214976
aF327.225130889909
aF331.56498673721825
aF0.0
aF0.0
aF325.3090435913782
aF333.11125916058904
aF0.0
aF0.0
aF0.0
aF0.0
aF0.0
aF325.94524119952126
aF0.0
aF645.3694740239075
aF1625.487646289596
aF648.9292667102154
aF324.14910858991107
aF342.2313483914018
aF0.0
aF0.0
aF0.0
aF2550.2072043337016
aF0.0
aF325.62683165141266
aF324.4646333549798
aF361.0108303249581
aF322.8931223767422
aF329.59789057330494
aF1933.612632929989
aF1629.7262059912125
aF1984.1269841215067
aF1663.8935108099013
aF334.00133600553374
aF0.0
aF664.2311524408562
aF976.5624999995669
asS'f_218'
p107
(lp108
F0.0
aF322.2687721561696
aF0.0
aF665.3359946775728
aF0.0
aF0.0
aF0.0
aF976.5625000008762
aF335.23298692599036
aF0.0
aF0.0
aF0.0
aF0.0
aF319.7953309882905
aF0.0
aF0.0
aF330.0330033001449
aF0.0
aF324.46463335486266
aF330.79722130346715
aF0.0
aF0.0
aF0.0
aF334.7840642783542
aF0.0
aF0.0
aF344.5899379738325
aF327.225130889909
aF0.0
aF338.6386725364836
aF1005.6989607785226
aF0.0
aF0.0
aF0.0
aF0.0
aF0.0
aF0.0
aF0.0
aF0.0
aF679.8096532968426
aF645.3694740239075
aF0.0
aF324.4646333551077
aF0.0
aF342.2313483914018
aF0.0
aF318.9792663477639
aF0.0
aF0.0
aF342.9355281207889
aF325.62683165141266
aF0.0
aF361.0108303249581
aF0.0
aF0.0
aF644.5375443113631
aF0.0
aF0.0
aF0.0
aF0.0
aF0.0
aF0.0
aF0.0
asS'f_592'
p109
(lp110
F1677.852348988516
aF2255.8814050901115
aF0.0
aF665.3359946775728
aF327.01111837811794
aF325.94524119946544
aF981.9967266778428
aF1627.6041666629494
aF1340.9319477082272
aF324.88628979864956
aF3230.4379038049374
aF1682.9350387017241
aF1023.8907849836758
aF0.0
aF654.0222367561113
aF322.5806451615969
aF4620.462046206229
aF3886.01036270061
aF1297.8585334235793
aF1323.1888852180778
aF645.1612903228621
aF652.9546196544992
aF7128.3095723008755
aF2008.7043856658654
aF3412.9692832750056
aF983.9291571006052
aF5168.849069602007
aF3272.2513088990904
aF2320.9549071573633
aF338.6386725364836
aF3017.0968823345015
aF325.3090435913782
aF999.3337774817674
aF3529.0343278803216
aF2433.936022250935
aF1297.8585334243253
aF682.3609689519516
aF1620.7455429443546
aF2607.5619295940965
aF2039.4289598862033
aF1290.7389480519207
aF1625.487646289596
aF324.4646333551077
aF1620.7455429443999
aF1711.156741951566
aF1985.4401058864878
aF637.9585326955278
aF658.5446163981608
aF0.0
aF342.9355281207889
aF651.2536633028253
aF1297.8585334240477
aF2527.0758122712614
aF3551.8243461451916
aF2636.783124584343
aF322.2687721556816
aF1955.6714471915288
aF661.3756613752381
aF1331.1148086563894
aF5010.020040077695
aF1618.646811260579
aF996.3467286612845
aF325.52083333318893
asS'f_1597'
p111
(lp112
F1006.7114093963121
aF644.5375443123392
aF328.51511169508615
aF332.6679973387864
aF327.01111837811794
aF0.0
aF327.3322422259476
aF0.0
aF0.0
aF0.0
aF1076.8126346020265
aF1009.7610232242465
aF341.2969283278919
aF0.0
aF327.01111837805564
aF645.1612903231938
aF1650.1650164954756
aF647.6683937830917
aF0.0
aF0.0
aF0.0
aF652.9546196544992
aF3394.4331296665696
aF334.7840642783542
aF341.29692832750055
aF327.97638570020166
aF344.5899379738325
aF327.225130889909
aF331.56498673721825
aF0.0
aF1005.6989607785226
aF325.3090435913782
aF333.11125916058904
aF0.0
aF0.0
aF0.0
aF341.1804844759758
aF0.0
aF0.0
aF0.0
aF322.68473701195376
aF650.1950585179065
aF324.4646333551077
aF1620.7455429443999
aF342.2313483914018
aF1985.4401058864878
aF0.0
aF329.2723081990804
aF0.0
aF685.8710562415778
aF651.2536633028253
aF324.4646333549798
aF1083.0324909748745
aF645.7862447534844
aF659.1957811466099
aF0.0
aF0.0
aF0.0
aF1331.1148086563894
aF334.00133600553374
aF647.4587245062911
aF0.0
aF976.5624999995669
asS'f_272'
p113
(lp114
F7046.979865775252
aF29326.458266202208
aF8541.39290406806
aF4657.351962747243
aF3597.1223021603378
aF21186.440677928967
aF13747.954173533532
aF6184.895833337847
aF4022.7958431140173
aF18518.518518478588
aF11127.063890888747
aF9087.849209015007
aF3412.9692832789196
aF6076.111288776503
aF6867.23348594021
aF19677.419354817393
aF7920.792079197179
aF22668.393782377305
aF5515.898767029569
aF9923.916639104016
aF10322.58064519863
aF40156.7091087756
aF1697.2165648278858
aF8704.385671232949
aF30716.723549464194
aF23286.323384684063
aF6547.208821501722
aF11452.879581183248
aF17241.379310284723
aF6095.496105654552
aF4693.261816970705
aF17241.37931029441
aF5662.891405726836
aF8982.996470963453
aF2433.936022250935
aF10707.332900750684
aF4776.526782668004
aF19124.797406761943
aF7170.795306391541
aF11556.764106083088
aF20006.453694702126
aF3901.170351109508
aF7462.6865671705755
aF2269.0437601262843
aF30458.59000682279
aF40039.70880215119
aF14354.066985695037
aF10207.44155417254
aF72680.9053235967
aF1028.8065843623667
aF14653.207424360182
aF6489.292667099597
aF12635.379061413729
aF7426.541814668153
aF5603.1641397430385
aF6445.375443113632
aF25097.783572320663
aF20833.33333328108
aF6988.352745424873
aF5010.020040077695
aF21689.86727092677
aF25905.014945170155
aF5533.854166661105
asS'f_1457'
p115
(lp116
F0.0
aF0.0
aF657.0302233901723
aF0.0
aF0.0
aF0.0
aF3273.3224222594763
aF4231.770833340237
aF670.4659738519807
aF324.88628979864956
aF358.93754486734207
aF0.0
aF0.0
aF0.0
aF654.0222367561113
aF0.0
aF660.0660066002898
aF0.0
aF324.46463335486266
aF0.0
aF0.0
aF0.0
aF1018.3299388999708
aF0.0
aF0.0
aF0.0
aF0.0
aF0.0
aF331.56498673721825
aF0.0
aF670.4659738523484
aF0.0
aF0.0
aF0.0
aF347.7051460363218
aF0.0
aF341.1804844759758
aF0.0
aF0.0
aF339.9048266484213
aF0.0
aF325.0975292589533
aF0.0
aF0.0
aF0.0
aF0.0
aF0.0
aF0.0
aF0.0
aF0.0
aF0.0
aF0.0
aF0.0
aF0.0
aF0.0
aF0.0
aF651.8904823985587
aF0.0
aF0.0
aF334.00133600553374
aF0.0
aF664.2311524408562
aF0.0
asS'f_579'
p117
(lp118
F0.0
aF644.5375443123392
aF328.51511169508615
aF332.6679973387864
aF327.01111837811794
aF0.0
aF654.6644844518952
aF325.5208333336254
aF335.23298692599036
aF0.0
aF0.0
aF0.0
aF0.0
aF0.0
aF0.0
aF0.0
aF990.0990099004349
aF647.6683937830917
aF324.46463335486266
aF661.5944426069343
aF645.1612903228621
aF0.0
aF0.0
aF334.7840642783542
aF682.5938566550011
aF0.0
aF0.0
aF654.450261779818
aF0.0
aF0.0
aF335.2329869261742
aF0.0
aF0.0
aF320.8213025344819
aF347.7051460363218
aF0.0
aF341.1804844759758
aF0.0
aF325.94524119952126
aF339.9048266484213
aF0.0
aF650.1950585179065
aF324.4646333551077
aF648.2982171798221
aF0.0
aF330.90668431511637
aF318.9792663477639
aF987.8169245972413
aF0.0
aF0.0
aF325.62683165141266
aF973.3939000649394
aF361.0108303249581
aF645.7862447534844
aF988.793671719915
aF0.0
aF325.94524119927934
aF0.0
aF332.77870216303876
aF668.0026720110675
aF0.0
aF0.0
aF0.0
asS'f_1668'
p119
(lp120
F671.1409395975413
aF322.2687721561696
aF0.0
aF0.0
aF0.0
aF0.0
aF0.0
aF1302.0833333386433
aF670.4659738519807
aF0.0
aF358.93754486734207
aF0.0
aF341.2969283278919
aF639.590661976581
aF327.01111837805564
aF0.0
aF0.0
aF0.0
aF973.3939000645881
aF330.79722130346715
aF645.1612903228621
aF0.0
aF678.8866259333138
aF0.0
aF341.29692832750055
aF0.0
aF0.0
aF0.0
aF994.6949602116548
aF338.6386725364836
aF335.2329869261742
aF325.3090435913782
aF333.11125916058904
aF0.0
aF0.0
aF973.3939000651476
aF0.0
aF0.0
aF0.0
aF0.0
aF0.0
aF0.0
aF0.0
aF0.0
aF0.0
aF0.0
aF0.0
aF658.5446163981608
aF0.0
aF0.0
aF0.0
aF648.9292667099596
aF0.0
aF0.0
aF0.0
aF644.5375443113631
aF325.94524119927934
aF1322.751322754684
aF665.5574043260775
aF334.00133600553374
aF0.0
aF0.0
aF325.52083333318893
asS'f_30'
p121
(lp122
F1342.2818791993525
aF1933.612632932917
aF2299.605781862468
aF332.6679973387864
aF327.01111837811794
aF325.94524119946544
aF1309.3289689079554
aF0.0
aF670.4659738519807
aF324.88628979864956
aF2153.6252691994855
aF673.1740154828309
aF0.0
aF319.7953309882905
aF654.0222367561113
aF1290.3225806504922
aF1320.132013204779
aF647.6683937830917
aF648.9292667097253
aF1323.1888852180778
aF322.58064516143105
aF0.0
aF1357.7732518709468
aF669.5681285567084
aF3412.9692832750056
aF327.97638570020166
aF1378.3597518997146
aF1636.1256544443406
aF0.0
aF1015.916017609451
aF1340.9319477089623
aF1301.2361743696522
aF1332.4450366465949
aF1604.106512667307
aF2781.641168288363
aF324.46463335504916
aF682.3609689519516
aF324.149108589902
aF1955.6714471929802
aF1699.5241332367007
aF322.68473701195376
aF1625.487646289596
aF1297.8585334245595
aF1296.5964343637688
aF2053.3880903440563
aF1654.5334215703188
aF318.9792663477639
aF5926.901547581353
aF0.0
aF685.8710562415778
aF325.62683165141266
aF1297.8585334240477
aF1444.043321304426
aF322.8931223767422
aF988.793671719915
aF0.0
aF325.94524119927934
aF0.0
aF1331.1148086563894
aF4676.018704081724
aF2266.1055357689297
aF996.3467286612845
aF325.52083333318893
asS'f_34'
p123
(lp124
F4362.416107387221
aF966.8063164685087
aF1314.0604467845246
aF3326.6799733878643
aF981.0333551343539
aF0.0
aF1309.3289689079554
aF976.5625000008762
aF1340.9319477082272
aF974.6588693959487
aF717.8750897346841
aF673.1740154828309
aF341.2969283278919
aF319.7953309882905
aF2616.088947022365
aF322.5806451615969
aF6600.660066002899
aF1619.1709844525785
aF973.3939000645881
aF2977.174991730152
aF2258.064516126939
aF2611.8184786159204
aF2715.546503731096
aF334.7840642783542
aF2389.078498289247
aF1311.9055428049799
aF9303.92832529019
aF981.6753926697271
aF7294.4297082209105
aF1015.916017609451
aF7710.358699305206
aF975.9271307741348
aF1665.5562957976474
aF2245.7491177383117
aF8692.628650902516
aF0.0
aF1705.9024223744527
aF648.298217179804
aF4563.233376797445
aF4758.667573082224
aF1290.7389480519207
aF5201.560468139117
aF4542.504866975637
aF8752.025931924505
aF4449.00752909149
aF661.8133686302327
aF318.9792663477639
aF658.5446163981608
aF4144.086707048603
aF1714.6776405984901
aF54705.30771740418
aF2920.181700193786
aF7581.227436825269
aF11947.045527977465
aF4614.370468030464
aF966.8063164670448
aF2281.616688391845
aF4298.941798942204
aF1331.1148086563894
aF2338.009352035549
aF2589.8348980231053
aF1660.5778810968584
aF19856.770833284143
asS'f_37'
p125
(lp126
F0.0
aF1611.343860775722
aF0.0
aF0.0
aF0.0
aF0.0
aF2945.990180032487
aF0.0
aF670.4659738519807
aF0.0
aF0.0
aF0.0
aF341.2969283278919
aF0.0
aF0.0
aF322.5806451615969
aF330.0330033001449
aF647.6683937830917
aF324.46463335486266
aF0.0
aF0.0
aF0.0
aF1357.7732518709468
aF0.0
aF0.0
aF0.0
aF1033.7698139214976
aF5562.82722512533
aF1326.2599469530917
aF1354.5546901502435
aF2011.3979215527797
aF0.0
aF0.0
aF320.8213025344819
aF4172.461752438075
aF324.46463335504916
aF0.0
aF0.0
aF0.0
aF339.9048266484213
aF0.0
aF650.1950585179065
aF0.0
aF2269.0437601262843
aF0.0
aF0.0
aF0.0
aF12512.347711604858
aF0.0
aF342.9355281207889
aF0.0
aF2271.252433481762
aF722.0216606499162
aF322.8931223767422
aF3625.576796307403
aF0.0
aF977.8357235978381
aF0.0
aF0.0
aF3006.0120240487418
aF0.0
aF0.0
aF0.0
asS'f_1063'
p127
(lp128
F2013.4228187883543
aF1611.343860775722
aF657.0302233901723
aF998.0039920163592
aF327.01111837811794
aF0.0
aF327.3322422259476
aF0.0
aF1005.6989607779713
aF649.7725795972991
aF1435.7501794739355
aF673.1740154828309
aF0.0
aF0.0
aF3597.122302159653
aF0.0
aF990.0990099004349
aF647.6683937830917
aF973.3939000645881
aF992.3916639104016
aF322.58064516143105
aF326.4773098272496
aF339.4433129666569
aF1673.9203213864462
aF682.5938566550011
aF0.0
aF2756.719503788468
aF327.225130889909
aF331.56498673721825
aF1354.5546901502435
aF1676.164934625539
aF325.3090435913782
aF999.3337774817674
aF1604.106512667307
aF4172.461752438075
aF1297.8585334243253
aF4435.3462981909415
aF324.149108589902
aF1303.7809648022323
aF679.8096532968426
aF645.3694740239075
aF650.1950585179065
aF324.4646333551077
aF3889.789303080995
aF1026.6940451742055
aF0.0
aF956.9377990432918
aF658.5446163981608
aF0.0
aF0.0
aF1628.1341582518842
aF0.0
aF2888.0866425973686
aF1291.5724895110775
aF1318.3915622974137
aF322.2687721556816
aF0.0
aF0.0
aF4658.901830286778
aF668.0026720110675
aF323.72936225314555
aF664.2311524408562
aF651.0416666663779
asS'f_2907'
p129
(lp130
F0.0
aF322.2687721561696
aF328.51511169508615
aF332.6679973387864
aF0.0
aF5215.123859187301
aF654.6644844518952
aF2278.645833332271
aF335.23298692599036
aF1299.545159198732
aF1435.7501794739355
aF0.0
aF0.0
aF0.0
aF654.0222367561113
aF0.0
aF0.0
aF0.0
aF1297.8585334235793
aF0.0
aF645.1612903228621
aF1305.9092393131527
aF1018.3299388999708
aF0.0
aF0.0
aF0.0
aF0.0
aF0.0
aF0.0
aF0.0
aF0.0
aF0.0
aF0.0
aF0.0
aF0.0
aF0.0
aF0.0
aF0.0
aF0.0
aF0.0
aF322.68473701195376
aF325.0975292589533
aF0.0
aF0.0
aF3422.3134839140184
aF0.0
aF318.9792663477639
aF0.0
aF318.7759005419662
aF0.0
aF0.0
aF0.0
aF0.0
aF1291.5724895110775
aF1318.3915622974137
aF322.2687721556816
aF325.94524119927934
aF330.68783068761905
aF0.0
aF0.0
aF0.0
aF0.0
aF0.0
asS'f_449'
p131
(lp132
F3020.1342281878688
aF322.2687721561696
aF1971.0906701663368
aF665.3359946775728
aF654.0222367562359
aF651.8904823989309
aF0.0
aF325.5208333336254
aF1676.1649346246202
aF0.0
aF0.0
aF1346.3480309699446
aF1023.8907849836758
aF0.0
aF654.0222367561113
aF0.0
aF1980.1980197966705
aF323.83419689154584
aF648.9292667097253
aF992.3916639104016
aF322.58064516143105
aF326.4773098272496
aF0.0
aF0.0
aF682.5938566550011
aF1639.881928495792
aF1033.7698139214976
aF654.450261779818
aF663.1299734744365
aF1354.5546901502435
aF0.0
aF0.0
aF2664.8900732825937
aF641.6426050689638
aF3824.7566064006464
aF324.46463335504916
aF341.1804844759758
aF0.0
aF3259.452411995213
aF1359.6193065980103
aF645.3694740239075
aF650.1950585179065
aF1622.323166770378
aF1620.7455429443999
aF342.2313483914018
aF0.0
aF637.9585326955278
aF329.2723081990804
aF0.0
aF1371.742112487519
aF325.62683165141266
aF0.0
aF1083.0324909748745
aF322.8931223767422
aF988.793671719915
aF0.0
aF0.0
aF2645.502645498849
aF998.3361064891164
aF1670.0066800223567
aF323.72936225314555
aF664.2311524408562
aF976.5624999995669
asS'f_204'
p133
(lp134
F6711.409395975414
aF322.2687721561696
aF328.51511169508615
aF3659.347970727709
aF327.01111837811794
aF0.0
aF0.0
aF0.0
aF1676.1649346246202
aF1624.4314489880805
aF717.8750897346841
aF2019.5220464442102
aF341.2969283278919
aF319.7953309882905
aF2289.077828643269
aF645.1612903231938
aF0.0
aF1295.3367875703038
aF973.3939000645881
aF10916.308303049142
aF322.58064516143105
aF0.0
aF0.0
aF0.0
aF7849.82935153577
aF0.0
aF3101.3094417633965
aF327.225130889909
aF2984.0848806339095
aF5756.85743311699
aF3017.0968823345015
aF1301.2361743696522
aF2998.001332444242
aF1283.2852101420099
aF1738.5257301760792
aF324.46463335504916
aF2388.263391328575
aF0.0
aF325.94524119952126
aF0.0
aF645.3694740239075
aF3250.975292589533
aF5515.898767033735
aF0.0
aF342.2313483914018
aF0.0
aF0.0
aF329.2723081990804
aF0.0
aF0.0
aF325.62683165141266
aF324.4646333549798
aF0.0
aF0.0
aF0.0
aF0.0
aF0.0
aF4298.941798942204
aF1996.6722129739985
aF0.0
aF971.1880867594368
aF4317.502490868736
aF976.5624999995669
asS'f_207'
p135
(lp136
F3691.275167787545
aF0.0
aF2628.120893558599
aF5655.355954756194
aF8502.289077826905
aF0.0
aF0.0
aF2929.687500001593
aF4358.028830041075
aF2923.9766081868124
aF8973.438621677844
aF4375.631100641614
aF5119.45392491295
aF4796.929964819272
aF981.0333551341671
aF1290.3225806504922
aF2970.297029700255
aF971.5025906746375
aF1297.8585334235793
aF0.0
aF3548.387096776768
aF979.431929481749
aF3733.876442634306
aF669.5681285567084
aF341.29692832750055
aF1967.858314197037
aF1378.3597518997146
aF0.0
aF663.1299734744365
aF1354.5546901502435
aF4358.028830043464
aF1301.2361743696522
aF3331.1125916058913
aF641.6426050689638
aF695.4102920726436
aF5191.434133676659
aF3070.624360282697
aF648.298217179804
aF0.0
aF3399.048266484214
aF3226.8473701195376
aF1300.3901170399497
aF648.9292667102154
aF0.0
aF4449.00752909149
aF0.0
aF3189.7926634776395
aF329.2723081990804
aF3506.5349059626424
aF2743.4842249641297
aF7815.043959627689
aF1297.8585334240477
aF722.0216606499162
aF2906.038101389653
aF329.59789057330494
aF6123.106670956925
aF651.8904823985587
aF330.68783068761905
aF665.5574043260775
aF668.0026720110675
aF0.0
aF332.1155762204281
aF23763.020833294835
asS'f_783'
p137
(lp138
F2684.5637583880307
aF322.2687721561696
aF2956.63600525473
aF665.3359946775728
aF327.01111837811794
aF0.0
aF2618.6579378054985
aF1302.0833333386433
aF1005.6989607779713
aF0.0
aF1794.6877243310016
aF336.58700774141545
aF682.5938566557838
aF0.0
aF654.0222367561113
aF322.5806451615969
aF1320.132013204779
aF1619.1709844525785
aF3569.110966904522
aF661.5944426069343
aF967.7419354842933
aF326.4773098272496
aF1357.7732518709468
aF1673.9203213864462
aF2047.7815699606606
aF327.97638570020166
aF0.0
aF327.225130889909
aF663.1299734744365
aF338.6386725364836
aF2011.3979215527797
aF325.3090435913782
aF3664.2238507675397
aF1283.2852101420099
aF695.4102920726436
aF0.0
aF0.0
aF648.298217179804
aF325.94524119952126
aF339.9048266484213
aF322.68473701195376
aF975.2925877768599
aF324.4646333551077
aF2917.3419773081687
aF1711.156741951566
aF330.90668431511637
aF0.0
aF1317.0892328005114
aF0.0
aF7544.5816186595375
aF325.62683165141266
aF973.3939000649394
aF1444.043321304426
aF645.7862447534844
aF988.793671719915
aF322.2687721556816
aF977.8357235978381
aF330.68783068761905
aF332.77870216303876
aF4008.0160320685304
aF971.1880867594368
aF0.0
aF325.52083333318893
asS'f_543'
p139
(lp140
F2684.5637583880307
aF2578.1501772473066
aF657.0302233901723
aF665.3359946775728
aF654.0222367562359
aF1955.6714471926457
aF2291.325695578509
aF2929.687500001593
aF1676.1649346246202
aF324.88628979864956
aF2871.5003589364537
aF673.1740154828309
aF2047.781569963009
aF959.3859929648717
aF327.01111837805564
aF645.1612903231938
aF4290.429042905034
aF2590.6735751303067
aF2595.7170668368376
aF2315.580549121113
aF2258.064516126939
aF1632.3865491310555
aF2715.546503731096
aF1673.9203213864462
aF2047.7815699606606
aF327.97638570020166
aF2067.5396278386106
aF1963.3507853352905
aF3647.2148541104552
aF677.2773450729673
aF1676.164934625539
aF1301.2361743696522
aF999.3337774817674
aF2566.5704202738143
aF1390.8205841497115
aF973.3939000651476
aF682.3609689519516
aF0.0
aF1955.6714471929802
aF2039.4289598862033
aF968.0542110358613
aF2925.877763329546
aF1622.323166770378
aF3241.491085899111
aF342.2313483914018
aF2316.346790202657
aF1594.8963317337461
aF4609.812314791316
aF0.0
aF1371.742112487519
aF976.880494954238
aF3893.575600261822
aF1805.0541516190488
aF2583.1449790118836
aF5273.566249168686
aF322.2687721556816
aF2281.616688391845
aF992.0634920628572
aF1331.1148086563894
aF2672.0106880421454
aF1294.9174490167013
aF996.3467286612845
aF1627.6041666607673
asS'f_815'
p141
(lp142
F1006.7114093963121
aF322.2687721561696
aF328.51511169508615
aF0.0
aF981.0333551343539
aF0.0
aF0.0
aF1302.0833333386433
aF670.4659738519807
aF1299.545159198732
aF0.0
aF1346.3480309699446
aF2389.0784982919863
aF639.590661976581
aF0.0
aF0.0
aF0.0
aF323.83419689154584
aF324.46463335486266
aF661.5944426069343
aF645.1612903228621
aF652.9546196544992
aF1018.3299388999708
aF0.0
aF0.0
aF0.0
aF344.5899379738325
aF327.225130889909
aF0.0
aF0.0
aF0.0
aF0.0
aF666.2225183211781
aF0.0
aF0.0
aF3893.5756002626545
aF341.1804844759758
aF648.298217179804
aF325.94524119952126
aF339.9048266484213
aF1290.7389480519207
aF0.0
aF0.0
aF0.0
aF0.0
aF0.0
aF318.9792663477639
aF0.0
aF0.0
aF2057.61316872037
aF651.2536633028253
aF0.0
aF361.0108303249581
aF0.0
aF0.0
aF644.5375443113631
aF0.0
aF0.0
aF0.0
aF0.0
aF0.0
aF0.0
aF2278.6458333292157
asS'f_1672'
p143
(lp144
F2348.993288588192
aF322.2687721561696
aF328.51511169508615
aF332.6679973387864
aF327.01111837811794
aF0.0
aF0.0
aF0.0
aF670.4659738519807
aF0.0
aF1435.7501794739355
aF336.58700774141545
aF2047.781569963009
aF0.0
aF0.0
aF0.0
aF660.0660066002898
aF323.83419689154584
aF324.46463335486266
aF330.79722130346715
aF0.0
aF0.0
aF339.4433129666569
aF1004.3521928350626
aF0.0
aF0.0
aF0.0
aF327.225130889909
aF0.0
aF0.0
aF0.0
aF0.0
aF333.11125916058904
aF0.0
aF347.7051460363218
aF0.0
aF0.0
aF0.0
aF0.0
aF0.0
aF0.0
aF0.0
aF0.0
aF0.0
aF684.4626967828036
aF0.0
aF0.0
aF0.0
aF0.0
aF0.0
aF325.62683165141266
aF0.0
aF0.0
aF0.0
aF0.0
aF0.0
aF0.0
aF0.0
aF0.0
aF0.0
aF0.0
aF0.0
aF0.0
asS'f_384'
p145
(lp146
F5033.557046976223
aF14179.825974916566
aF21681.997371840156
aF2328.67598136833
aF6540.222367562359
aF90612.7770534286
aF30114.566284778848
aF24414.062499996016
aF20784.445189370883
aF19818.06367767732
aF13998.564249870871
aF4375.631100641614
aF8532.423208191869
aF7035.497281744426
aF1308.0444735163835
aF17741.935483841655
aF21452.14521447268
aF4209.844559593186
aF1297.8585334235793
aF5623.552762155785
aF14516.129032310573
aF19588.638589593436
aF6449.422946365402
aF14730.498828294441
aF5802.047781564252
aF46244.67038366688
aF6202.618883526793
aF41884.816753937506
aF12599.469496054371
aF18625.126989458127
aF22460.61012401848
aF13988.288874473761
aF4663.557628252486
aF4812.319538012126
aF4867.872044512931
aF21739.130434754235
aF7505.970658473639
aF21393.841166898477
aF7496.7405475921
aF39768.864717883676
aF6776.379477252055
aF650.1950585179065
aF648.9292667102154
aF324.14910858991107
aF3764.544832306509
aF41363.335539415864
aF33492.82296652029
aF15475.798485301268
aF21676.761236821254
aF4458.161865573528
aF30608.922175226577
aF9409.474367293382
aF40433.212996409085
aF5489.183080401536
aF2966.3810151586963
aF7089.912987427046
aF12059.973924411697
aF1984.1269841215067
aF1663.8935108099013
aF10688.04275221108
aF12301.715765658664
aF7638.6582530730175
aF6835.937499998003
asS'f_387'
p147
(lp148
F1006.7114093963121
aF644.5375443123392
aF328.51511169508615
aF0.0
aF0.0
aF0.0
aF0.0
aF0.0
aF0.0
aF0.0
aF358.93754486734207
aF0.0
aF0.0
aF0.0
aF0.0
aF0.0
aF0.0
aF647.6683937830917
aF324.46463335486266
aF661.5944426069343
aF0.0
aF326.4773098272496
aF678.8866259333138
aF0.0
aF341.29692832750055
aF0.0
aF344.5899379738325
aF654.450261779818
aF0.0
aF0.0
aF670.4659738523484
aF0.0
aF0.0
aF641.6426050689638
aF0.0
aF0.0
aF0.0
aF0.0
aF325.94524119952126
aF339.9048266484213
aF0.0
aF0.0
aF648.9292667102154
aF0.0
aF684.4626967828036
aF0.0
aF0.0
aF0.0
aF0.0
aF0.0
aF0.0
aF0.0
aF0.0
aF645.7862447534844
aF659.1957811466099
aF0.0
aF325.94524119927934
aF0.0
aF0.0
aF0.0
aF0.0
aF0.0
aF0.0
asS'f_29'
p149
(lp150
F10402.684563762958
aF1933.612632932917
aF5584.756898813329
aF998.0039920163592
aF654.0222367562359
aF0.0
aF654.6644844518952
aF1953.1249999976105
aF7375.1257123739215
aF1299.545159198732
aF1435.7501794739355
aF3029.2830696716687
aF1023.8907849836758
aF959.3859929648717
aF654.0222367561113
aF645.1612903231938
aF3960.3960396038387
aF1943.0051813451546
aF1946.7878001250476
aF1323.1888852180778
aF1935.483870964482
aF1305.9092393131527
aF2036.6598777956226
aF1339.1362571176767
aF1365.1877133143448
aF983.9291571006052
aF1378.3597518997146
aF1636.1256544443406
aF1989.3899204190907
aF2031.8320352145931
aF2011.3979215527797
aF975.9271307741348
aF12991.3391073043
aF2566.5704202738143
aF11821.97496527255
aF973.3939000651476
aF1364.7219379082444
aF1296.5964343637327
aF3911.3428943963286
aF2039.4289598862033
aF2904.162633106557
aF1300.3901170399497
aF3893.575600263357
aF1296.5964343637688
aF3080.082135521528
aF0.0
aF956.9377990432918
aF987.8169245972413
aF0.0
aF8230.452674892389
aF3907.5219798190233
aF1622.3231667697385
aF7220.216606499163
aF2583.1449790118836
aF1647.9894528612826
aF0.0
aF3911.342894393426
aF2645.502645498849
aF998.3361064891164
aF6680.026720110676
aF2913.5642602772805
aF3653.2713384257663
aF651.0416666663779
asS'f_28'
p151
(lp152
F119798.65771768824
aF101192.3944570516
aF165571.6162942231
aF188622.75449084534
aF524852.8449964684
aF28683.18122554052
aF15057.283142441487
aF192708.33333329085
aF194770.36540419346
aF351851.8518518166
aF226848.5283559684
aF262201.27903075435
aF305802.04778124404
aF622321.7141027515
aF26160.88947022365
aF252580.64516110253
aF79207.92079197179
aF151878.23834200006
aF137248.53990933707
aF203440.2911012272
aF418387.09677386
aF144302.97094327255
aF244738.62864930625
aF268162.0354873888
aF50511.945392413625
aF75762.54509677892
aF179531.35768449935
aF84424.0837695528
aF29509.283819600823
aF199458.178123977
aF223935.63526611705
aF195836.0442418048
aF240506.32911386268
aF188322.10458752353
aF20514.603616097644
aF449059.0525631652
aF375980.8938928531
aF115072.93354978127
aF71056.0625815143
aF147178.78993901837
aF282026.46014872886
aF54291.28738621107
aF96365.9961064639
aF28849.270664490745
aF163586.58453139273
aF15221.707478543774
aF345135.5661885667
aF2963.4507737906765
aF24545.744341708076
aF309327.84636506287
aF157603.38651916356
aF167423.75081128933
aF39711.19133575688
aF162092.34743281853
aF36585.365853648385
aF296165.0016113984
aF29986.962190325405
aF73082.0105819859
aF40931.78036607812
aF24716.098864381875
aF108449.33635514874
aF47492.527399461
aF391276.04166690935
asS'f_2614'
p153
(lp154
F1006.7114093963121
aF322.2687721561696
aF0.0
aF332.6679973387864
aF981.0333551343539
aF0.0
aF0.0
aF976.5625000008762
aF1005.6989607779713
aF649.7725795972991
aF717.8750897346841
aF336.58700774141545
aF341.2969283278919
aF1918.7719859256742
aF0.0
aF0.0
aF0.0
aF0.0
aF0.0
aF992.3916639104016
aF967.7419354842933
aF0.0
aF678.8866259333138
aF669.5681285567084
aF341.29692832750055
aF327.97638570020166
aF344.5899379738325
aF1308.9005235637997
aF0.0
aF5418.21876057943
aF2011.3979215527797
aF325.3090435913782
aF666.2225183211781
aF320.8213025344819
aF1043.1154381089657
aF1946.7878001261668
aF341.1804844759758
aF324.149108589902
aF0.0
aF679.8096532968426
aF645.3694740239075
aF0.0
aF324.4646333551077
aF0.0
aF0.0
aF0.0
aF1594.8963317337461
aF329.2723081990804
aF0.0
aF1028.8065843623667
aF651.2536633028253
aF973.3939000649394
aF361.0108303249581
aF1291.5724895110775
aF659.1957811466099
aF1289.0750886268268
aF325.94524119927934
aF0.0
aF332.77870216303876
aF0.0
aF0.0
aF0.0
aF2604.1666666634405
asS'f_26'
p155
(lp156
F1342.2818791993525
aF2255.8814050901115
aF985.5453350852586
aF998.0039920163592
aF1962.0667102645468
aF0.0
aF1309.3289689079554
aF2604.166666666932
aF1005.6989607779713
aF324.88628979864956
aF3589.3754486734215
aF673.1740154828309
aF1023.8907849836758
aF2238.567316914982
aF0.0
aF1935.483870965477
aF1320.132013204779
aF2266.83937823773
aF4218.0402336163115
aF992.3916639104016
aF3548.387096776768
aF1632.3865491310555
aF4073.3197556020427
aF1004.3521928350626
aF341.29692832750055
aF0.0
aF1378.3597518997146
aF327.225130889909
aF331.56498673721825
aF1015.916017609451
aF3352.3298692617423
aF1626.5452179517172
aF1998.667554959296
aF4170.676932951326
aF0.0
aF2271.252433482248
aF1023.5414534279275
aF324.149108589902
aF651.8904823990425
aF1359.6193065980103
aF968.0542110358613
aF1950.5851755495833
aF648.9292667102154
aF648.2982171798221
aF1368.925393569962
aF330.90668431511637
aF956.9377990432918
aF329.2723081990804
aF0.0
aF1028.8065843623667
aF0.0
aF1622.3231667697385
aF722.0216606499162
aF1291.5724895110775
aF988.793671719915
aF0.0
aF0.0
aF661.3756613752381
aF332.77870216303876
aF0.0
aF1618.646811260579
aF332.1155762204281
aF1953.1249999949916
asS'f_24'
p157
(lp158
F4697.98657718706
aF966.8063164685087
aF1314.0604467845246
aF0.0
aF2289.077828643705
aF0.0
aF327.3322422259476
aF651.0416666672508
aF1676.1649346246202
aF0.0
aF5384.063173004422
aF2019.5220464442102
aF682.5938566557838
aF639.590661976581
aF654.0222367561113
aF322.5806451615969
aF5610.561056099315
aF647.6683937830917
aF2271.2524334809423
aF3969.5666556437104
aF967.7419354842933
aF2611.8184786159204
aF2036.6598777956226
aF1673.9203213864462
aF1706.4846416320745
aF1311.9055428049799
aF2756.719503788468
aF2945.0261780081405
aF1989.3899204190907
aF338.6386725364836
aF4693.261816970705
aF325.3090435913782
aF1332.4450366465949
aF962.4639076034458
aF4172.461752438075
aF648.9292667100983
aF1705.9024223744527
aF0.0
aF4237.288135596887
aF2719.2386131852086
aF645.3694740239075
aF2600.7802340695584
aF648.9292667102154
aF2593.1928687172267
aF2737.8507871290376
aF4301.786896099671
aF637.9585326955278
aF1646.361540990165
aF0.0
aF1714.6776405984901
aF4558.775643123921
aF0.0
aF3971.119133575688
aF968.6793671302268
aF2307.1852340099895
aF322.2687721556816
aF977.8357235978381
aF330.68783068761905
aF998.3361064891164
aF5010.020040077695
aF971.1880867594368
aF332.1155762204281
aF0.0
asS'f_1378'
p159
(lp160
F335.57046979877066
aF0.0
aF0.0
aF0.0
aF0.0
aF0.0
aF327.3322422259476
aF0.0
aF670.4659738519807
aF0.0
aF358.93754486734207
aF336.58700774141545
aF341.2969283278919
aF0.0
aF0.0
aF0.0
aF1320.132013204779
aF0.0
aF1297.8585334235793
aF330.79722130346715
aF0.0
aF326.4773098272496
aF678.8866259333138
aF669.5681285567084
aF0.0
aF0.0
aF689.179875947665
aF327.225130889909
aF663.1299734744365
aF0.0
aF0.0
aF0.0
aF333.11125916058904
aF0.0
aF0.0
aF0.0
aF0.0
aF0.0
aF0.0
aF339.9048266484213
aF0.0
aF0.0
aF324.4646333551077
aF0.0
aF342.2313483914018
aF0.0
aF0.0
aF0.0
aF0.0
aF0.0
aF0.0
aF0.0
aF0.0
aF0.0
aF0.0
aF322.2687721556816
aF0.0
aF0.0
aF332.77870216303876
aF334.00133600553374
aF0.0
aF0.0
aF0.0
asS'f_478'
p161
(lp162
F1006.7114093963121
aF2900.418949404501
aF1971.0906701663368
aF9314.703925483904
aF654.0222367562359
aF3259.452411994655
aF981.9967266778428
aF0.0
aF1340.9319477082272
aF1949.3177387877636
aF2512.562814067969
aF1009.7610232242465
aF682.5938566557838
aF639.590661976581
aF10137.344669720766
aF2258.0645161281
aF990.0990099004349
aF4533.678756485762
aF973.3939000645881
aF1653.9861065120745
aF1290.3225806498288
aF2285.341168787632
aF1697.2165648278858
aF1339.1362571176767
aF3412.9692832750056
aF3607.740242703262
aF2756.719503788468
aF0.0
aF1989.3899204190907
aF1015.916017609451
aF670.4659738523484
aF2277.1633051365434
aF1332.4450366465949
aF962.4639076034458
aF1043.1154381089657
aF324.46463335504916
aF682.3609689519516
aF3241.4910858990206
aF2281.616688393538
aF2039.4289598862033
aF645.3694740239075
aF6176.8530559190785
aF648.9292667102154
aF2917.3419773081687
aF6502.395619435547
aF18199.86763728403
aF2551.834130780082
aF1317.0892328005114
aF9882.052916801966
aF685.8710562415778
aF2930.6414848616782
aF1297.8585334240477
aF6859.205776173057
aF7103.648692290383
aF8569.545154901734
aF14502.094747051802
aF5215.123859184323
aF4298.941798942204
aF9983.361064891165
aF1336.005344026385
aF2589.8348980231053
aF1660.5778810968584
aF9114.583333327218
asS'f_472'
p163
(lp164
F1342.2818791993525
aF0.0
aF985.5453350852586
aF332.6679973387864
aF0.0
aF0.0
aF0.0
aF0.0
aF2011.397921551677
aF324.88628979864956
aF2512.562814067969
aF673.1740154828309
aF2730.3754266209644
aF0.0
aF327.01111837805564
aF0.0
aF0.0
aF647.6683937830917
aF0.0
aF3969.5666556437104
aF0.0
aF326.4773098272496
aF0.0
aF0.0
aF2730.375426617833
aF327.97638570020166
aF344.5899379738325
aF0.0
aF331.56498673721825
aF338.6386725364836
aF335.2329869261742
aF0.0
aF999.3337774817674
aF320.8213025344819
aF0.0
aF0.0
aF341.1804844759758
aF324.149108589902
aF977.8357235985638
aF0.0
aF0.0
aF0.0
aF324.4646333551077
aF0.0
aF342.2313483914018
aF0.0
aF0.0
aF0.0
aF0.0
aF0.0
aF0.0
aF0.0
aF722.0216606499162
aF0.0
aF0.0
aF0.0
aF0.0
aF661.3756613752381
aF332.77870216303876
aF0.0
aF323.72936225314555
aF332.1155762204281
aF0.0
asS'f_125'
p165
(lp166
F2013.4228187883543
aF0.0
aF328.51511169508615
aF332.6679973387864
aF654.0222367562359
aF0.0
aF0.0
aF0.0
aF0.0
aF324.88628979864956
aF0.0
aF0.0
aF0.0
aF319.7953309882905
aF0.0
aF0.0
aF0.0
aF0.0
aF324.46463335486266
aF330.79722130346715
aF322.58064516143105
aF326.4773098272496
aF0.0
aF0.0
aF0.0
aF327.97638570020166
aF1033.7698139214976
aF0.0
aF0.0
aF0.0
aF1340.9319477089623
aF325.3090435913782
aF0.0
aF0.0
aF695.4102920726436
aF0.0
aF0.0
aF0.0
aF2281.616688393538
aF0.0
aF322.68473701195376
aF0.0
aF1946.787800126518
aF0.0
aF0.0
aF0.0
aF0.0
aF0.0
aF0.0
aF342.9355281207889
aF651.2536633028253
aF1297.8585334240477
aF0.0
aF645.7862447534844
aF0.0
aF0.0
aF0.0
aF0.0
aF332.77870216303876
aF0.0
aF323.72936225314555
aF1660.5778810968584
aF325.52083333318893
asS'f_124'
p167
(lp168
F6040.2684563757375
aF966.8063164685087
aF985.5453350852586
aF3326.6799733878643
aF981.0333551343539
aF0.0
aF2291.325695578509
aF1953.1249999976105
aF3017.096882332847
aF324.88628979864956
aF7178.750897346843
aF1346.3480309699446
aF3754.266211607897
aF1279.1813239572311
aF3597.122302159653
aF2258.0645161281
aF5610.561056099315
aF1619.1709844525785
aF13627.514600947583
aF4961.958319546746
aF322.58064516143105
aF652.9546196544992
aF3394.4331296665696
aF3682.624707062961
aF3071.672354946419
aF1311.9055428049799
aF0.0
aF327.225130889909
aF331.56498673721825
aF0.0
aF670.4659738523484
aF325.3090435913782
aF333.11125916058904
aF641.6426050689638
aF1043.1154381089657
aF0.0
aF0.0
aF0.0
aF977.8357235985638
aF1019.7144799452641
aF0.0
aF1300.3901170399497
aF1297.8585334245595
aF1296.5964343637688
aF2053.3880903440563
aF661.8133686302327
aF0.0
aF0.0
aF0.0
aF0.0
aF0.0
aF324.4646333549798
aF1083.0324909748745
aF0.0
aF2307.1852340099895
aF0.0
aF325.94524119927934
aF330.68783068761905
aF1331.1148086563894
aF334.00133600553374
aF647.4587245062911
aF0.0
aF1627.6041666607673
asS'f_1832'
p169
(lp170
F2013.4228187883543
aF966.8063164685087
aF0.0
aF665.3359946775728
aF981.0333551343539
aF325.94524119946544
aF2618.6579378054985
aF1302.0833333386433
aF1005.6989607779713
aF0.0
aF1794.6877243310016
aF673.1740154828309
aF1706.4846416340313
aF0.0
aF654.0222367561113
aF322.5806451615969
aF2640.26402639906
aF3562.1761658080345
aF2595.7170668368376
aF1653.9861065120745
aF322.58064516143105
aF979.431929481749
aF5091.649694494455
aF2008.7043856658654
aF3071.672354946419
aF983.9291571006052
aF2412.129565813539
aF2945.0261780081405
aF2984.0848806339095
aF1354.5546901502435
aF1005.6989607785226
aF0.0
aF333.11125916058904
aF2245.7491177383117
aF1043.1154381089657
aF0.0
aF682.3609689519516
aF324.149108589902
aF977.8357235985638
aF679.8096532968426
aF322.68473701195376
aF650.1950585179065
aF1622.323166770378
aF4538.08752026288
aF2053.3880903440563
aF3639.973527467333
aF637.9585326955278
aF4939.0846229809695
aF956.3277016258987
aF1371.742112487519
aF5210.02930641846
aF1622.3231667697385
aF2166.064981945155
aF645.7862447534844
aF3625.576796307403
aF0.0
aF1629.7262059912125
aF0.0
aF665.5574043260775
aF1670.0066800223567
aF2913.5642602772805
aF1660.5778810968584
aF0.0
asS'f_2016'
p171
(lp172
F2348.993288588192
aF0.0
aF328.51511169508615
aF0.0
aF0.0
aF325.94524119946544
aF654.6644844518952
aF325.5208333336254
aF670.4659738519807
aF324.88628979864956
aF358.93754486734207
aF336.58700774141545
aF2389.0784982919863
aF0.0
aF0.0
aF322.5806451615969
aF4620.462046206229
aF323.83419689154584
aF324.46463335486266
aF1653.9861065120745
aF0.0
aF0.0
aF0.0
aF2343.4884499452846
aF682.5938566550011
aF0.0
aF0.0
aF654.450261779818
aF0.0
aF0.0
aF0.0
aF0.0
aF333.11125916058904
aF0.0
aF347.7051460363218
aF0.0
aF341.1804844759758
aF0.0
aF325.94524119952126
aF679.8096532968426
aF0.0
aF0.0
aF0.0
aF0.0
aF342.2313483914018
aF330.90668431511637
aF0.0
aF0.0
aF0.0
aF0.0
aF325.62683165141266
aF324.4646333549798
aF0.0
aF0.0
aF329.59789057330494
aF0.0
aF0.0
aF0.0
aF0.0
aF334.00133600553374
aF0.0
aF0.0
aF0.0
asS'f_123'
p173
(lp174
F5033.557046976223
aF1611.343860775722
aF8869.908015764191
aF2328.67598136833
aF23871.811641574524
aF977.8357235983965
aF654.6644844518952
aF4231.770833340237
aF5698.960777738637
aF8771.929824560439
aF9332.376166546328
aF13800.067317441933
aF10238.907849836758
aF13111.60857056162
aF981.0333551341671
aF3225.8064516159698
aF3300.3300330014495
aF2914.5077720228824
aF2920.181700192732
aF1653.9861065120745
aF14193.548387148117
aF3591.2504081007846
aF8825.526137128762
aF11382.658185500251
aF682.5938566550011
aF3607.740242703262
aF3790.489317713254
aF3599.4764397900403
aF1989.3899204190907
aF6095.496105654552
aF7710.358699305206
aF5204.944697457913
aF13324.45036646595
aF4170.676932951326
aF1390.8205841497115
aF13627.514600955416
aF11600.136472220078
aF3565.6401944899535
aF2933.5071707946545
aF3738.9530931337163
aF7421.748951278016
aF975.2925877768599
aF2595.717066838798
aF648.2982171798221
aF6844.626967828037
aF0.0
aF9569.377990432919
aF0.0
aF0.0
aF13031.550068631432
aF5861.2829697233565
aF3569.11096690581
aF2527.0758122712614
aF6780.755569912614
aF0.0
aF2900.418949400109
aF325.94524119927934
aF1653.4391534328358
aF1331.1148086563894
aF0.0
aF1942.3761735147543
aF2656.9246097613122
aF10416.66666669518
asS'f_252'
p175
(lp176
F2013.4228187883543
aF1289.0750886287788
aF657.0302233901723
aF0.0
aF2943.1000654020213
aF325.94524119946544
aF981.9967266778428
aF1627.6041666629494
aF2011.397921551677
aF1624.4314489880805
aF2871.5003589364537
aF673.1740154828309
aF1365.1877133159103
aF1598.9766549363662
aF654.0222367561113
aF322.5806451615969
aF2970.297029700255
aF0.0
aF1297.8585334235793
aF1323.1888852180778
aF1290.3225806498288
aF326.4773098272496
aF2376.103190763359
aF1004.3521928350626
aF341.29692832750055
aF0.0
aF689.179875947665
aF2290.57591622624
aF663.1299734744365
aF0.0
aF1676.164934625539
aF325.3090435913782
aF1998.667554959296
aF1924.9278152028094
aF695.4102920726436
aF324.46463335504916
aF1364.7219379082444
aF0.0
aF977.8357235985638
aF1019.7144799452641
aF0.0
aF325.0975292589533
aF648.9292667102154
aF1296.5964343637688
aF342.2313483914018
aF661.8133686302327
aF0.0
aF329.2723081990804
aF0.0
aF342.9355281207889
aF1302.5073266097938
aF324.4646333549798
aF361.0108303249581
aF0.0
aF659.1957811466099
aF0.0
aF977.8357235978381
aF330.68783068761905
aF998.3361064891164
aF334.00133600553374
aF971.1880867594368
aF664.2311524408562
aF0.0
asS'f_95'
p177
(lp178
F10402.684563762958
aF1611.343860775722
aF4270.696452039255
aF4324.683965407398
aF3270.1111837811795
aF1303.7809648020093
aF1636.6612111245317
aF976.5625000008762
aF6369.426751592751
aF1624.4314489880805
aF4666.188083278873
aF3029.2830696716687
aF2047.781569963009
aF0.0
aF6867.23348594021
aF645.1612903231938
aF6270.627062701704
aF2266.83937823773
aF973.3939000645881
aF3307.9722130346718
aF2258.064516126939
aF3917.7277179290727
aF6109.979633397666
aF2008.7043856658654
aF1365.1877133143448
aF4263.693014105752
aF12060.647829122503
aF2945.0261780081405
aF3978.7798408487283
aF2370.470707752154
aF8716.057660076263
aF3253.0904359137826
aF8994.003997332726
aF4170.676932951326
aF13560.500695459688
aF3244.6463335504923
aF5458.8877516112725
aF648.298217179804
aF14341.590612824555
aF6458.191706318925
aF3226.8473701195376
aF12353.706111879523
aF3893.575600263357
aF19448.94651535342
aF8898.015058172094
aF1654.5334215703188
aF1913.875598082525
aF2634.1784655905485
aF637.5518010839324
aF7544.5816186595375
aF8791.924454585034
aF1946.7878001257504
aF17689.53068586438
aF8395.221181791188
aF12524.71984182543
aF2255.8814050866954
aF4889.178617984006
aF3306.878306876191
aF7986.68885190658
aF7014.028056117272
aF971.1880867594368
aF3985.3869146472507
aF3906.250000000338
asS'f_792'
p179
(lp180
F2013.4228187883543
aF322.2687721561696
aF1314.0604467845246
aF0.0
aF327.01111837811794
aF0.0
aF0.0
aF325.5208333336254
aF670.4659738519807
aF0.0
aF358.93754486734207
aF0.0
aF341.2969283278919
aF0.0
aF0.0
aF0.0
aF660.0660066002898
aF0.0
aF0.0
aF1653.9861065120745
aF0.0
aF326.4773098272496
aF678.8866259333138
aF334.7840642783542
aF682.5938566550011
aF0.0
aF2067.5396278386106
aF0.0
aF0.0
aF0.0
aF1340.9319477089623
aF0.0
aF333.11125916058904
aF0.0
aF1738.5257301760792
aF0.0
aF682.3609689519516
aF0.0
aF1303.7809648022323
aF679.8096532968426
aF322.68473701195376
aF975.2925877768599
aF648.9292667102154
aF648.2982171798221
aF1026.6940451742055
aF661.8133686302327
aF318.9792663477639
aF329.2723081990804
aF0.0
aF1371.742112487519
aF3581.895148166575
aF324.4646333549798
aF2527.0758122712614
aF1614.4656118785756
aF329.59789057330494
aF322.2687721556816
aF977.8357235978381
aF0.0
aF665.5574043260775
aF668.0026720110675
aF323.72936225314555
aF664.2311524408562
aF0.0
asS'f_254'
p181
(lp182
F335.57046979877066
aF322.2687721561696
aF0.0
aF332.6679973387864
aF0.0
aF1629.7262059921432
aF0.0
aF0.0
aF670.4659738519807
aF0.0
aF358.93754486734207
aF336.58700774141545
aF341.2969283278919
aF319.7953309882905
aF1308.0444735163835
aF0.0
aF990.0990099004349
aF0.0
aF648.9292667097253
aF330.79722130346715
aF0.0
aF652.9546196544992
aF0.0
aF1339.1362571176767
aF341.29692832750055
aF1967.858314197037
aF689.179875947665
aF0.0
aF331.56498673721825
aF338.6386725364836
aF0.0
aF325.3090435913782
aF333.11125916058904
aF0.0
aF0.0
aF648.9292667100983
aF341.1804844759758
aF648.298217179804
aF325.94524119952126
aF1019.7144799452641
aF645.3694740239075
aF325.0975292589533
aF0.0
aF0.0
aF684.4626967828036
aF992.7200529453492
aF956.9377990432918
aF658.5446163981608
aF956.3277016258987
aF0.0
aF325.62683165141266
aF0.0
aF0.0
aF645.7862447534844
aF329.59789057330494
aF966.8063164670448
aF0.0
aF330.68783068761905
aF332.77870216303876
aF0.0
aF0.0
aF332.1155762204281
aF325.52083333318893
asS'f_17'
p183
(lp184
F2684.5637583880307
aF1289.0750886287788
aF328.51511169508615
aF332.6679973387864
aF654.0222367562359
aF0.0
aF981.9967266778428
aF0.0
aF4022.7958431140173
aF0.0
aF358.93754486734207
aF0.0
aF341.2969283278919
aF0.0
aF327.01111837805564
aF322.5806451615969
aF2640.26402639906
aF323.83419689154584
aF324.46463335486266
aF1653.9861065120745
aF0.0
aF326.4773098272496
aF3054.989816698833
aF669.5681285567084
aF1023.8907849825017
aF0.0
aF3445.8993797383255
aF8180.62827224252
aF2652.519893895637
aF3386.386725364837
aF6369.426751596244
aF325.3090435913782
aF0.0
aF0.0
aF17037.552155723362
aF1622.3231667700854
aF2729.4438758056363
aF0.0
aF0.0
aF3738.9530931337163
aF322.68473701195376
aF0.0
aF324.4646333551077
aF3241.491085899111
aF1368.925393569962
aF2978.160158834995
aF0.0
aF5268.356931181097
aF0.0
aF4115.226337451649
aF976.880494954238
aF1622.3231667697385
aF4693.140794227901
aF645.7862447534844
aF2307.1852340099895
aF0.0
aF1629.7262059912125
aF330.68783068761905
aF998.3361064891164
aF5678.022712090887
aF0.0
aF2656.9246097613122
aF0.0
asS'f_1169'
p185
(lp186
F3020.1342281878688
aF322.2687721561696
aF657.0302233901723
aF0.0
aF0.0
aF0.0
aF327.3322422259476
aF0.0
aF3687.5628561869607
aF0.0
aF0.0
aF1009.7610232242465
aF2730.3754266209644
aF319.7953309882905
aF0.0
aF0.0
aF3960.3960396038387
aF0.0
aF648.9292667097253
aF3638.769434339191
aF0.0
aF652.9546196544992
aF1357.7732518709468
aF4352.1928356217995
aF0.0
aF655.9527714004033
aF689.179875947665
aF2617.8010471171906
aF0.0
aF0.0
aF2346.63090848002
aF0.0
aF2664.8900732825937
aF641.6426050689638
aF1390.8205841497115
aF973.3939000651476
aF2047.0829068515138
aF0.0
aF4889.178617987634
aF2379.3337865357057
aF0.0
aF325.0975292589533
aF324.4646333551077
aF324.14910858991107
aF0.0
aF330.90668431511637
aF956.9377990432918
aF658.5446163981608
aF0.0
aF2743.4842249641297
aF2279.387821556781
aF648.9292667099596
aF722.0216606499162
aF968.6793671302268
aF329.59789057330494
aF0.0
aF0.0
aF330.68783068761905
aF0.0
aF8684.034736139629
aF0.0
aF0.0
aF0.0
asS'f_12'
p187
(lp188
F2348.993288588192
aF1289.0750886287788
aF2956.63600525473
aF10978.043912214873
aF1635.0555918853886
aF1629.7262059921432
aF654.6644844518952
aF325.5208333336254
aF0.0
aF2923.9766081868124
aF0.0
aF3029.2830696716687
aF1023.8907849836758
aF319.7953309882905
aF981.0333551341671
aF3870.9677419412155
aF330.0330033001449
aF4533.678756485762
aF324.46463335486266
aF7608.336089982902
aF322.58064516143105
aF0.0
aF678.8866259333138
aF1004.3521928350626
aF1706.4846416320745
aF4263.693014105752
aF9648.518263265118
aF5890.052356016281
aF9615.384615378274
aF677.2773450729673
aF2346.63090848002
aF13012.361743696523
aF6995.33644237343
aF4812.319538012126
aF1390.8205841497115
aF12978.585334243253
aF5458.8877516112725
aF82658.02269037862
aF13363.754889222882
aF14955.812372578113
aF17424.975798598287
aF13654.096228919474
aF5191.434133677596
aF31118.31442462734
aF9240.246406564584
aF330.90668431511637
aF22647.52791066181
aF29305.235429706638
aF3825.3108065056226
aF6858.710562415778
aF28655.161185311885
aF21090.201168037565
aF7942.238267151376
aF15498.869874030217
aF12854.317732399782
aF14179.825974895095
aF13037.809648012648
aF5291.005290997698
aF17970.0499167554
aF11022.044088217677
aF16510.197474859968
aF14945.200929966808
aF7486.979166666452
asS'f_13'
p189
(lp190
F3355.704697987707
aF1933.612632932917
aF3285.1511169508617
aF13306.719893593785
aF14061.4780903038
aF651.8904823989309
aF0.0
aF3580.7291666709148
aF7375.1257123739215
aF4873.294346974576
aF20818.37760225789
aF11780.545270987017
aF13651.877133159103
aF5116.72529580858
aF981.0333551341671
aF3225.8064516159698
aF5610.561056099315
aF2914.5077720228824
aF2595.7170668368376
aF7608.336089982902
aF6774.193548391078
aF5550.1142670601275
aF16293.279022343386
aF9373.953799791789
aF1365.1877133143448
aF4919.645785497809
aF12060.647829122503
aF1636.1256544443406
aF331.56498673721825
aF1354.5546901502435
aF8380.824673149022
aF1301.2361743696522
aF7661.558960696729
aF2245.7491177383117
aF695.4102920726436
aF14276.443867667578
aF13647.219379082446
aF1296.5964343637327
aF1629.7262059924221
aF7817.811012916935
aF4517.5863181714585
aF1950.5851755495833
aF1297.8585334245595
aF1296.5964343637688
aF24982.888432542943
aF1654.5334215703188
aF8293.460925037803
aF329.2723081990804
aF637.5518010839324
aF3772.2908093297688
aF13025.07326609794
aF1297.8585334240477
aF4693.140794227901
aF4843.396835645998
aF2307.1852340099895
aF18047.051240673063
aF977.8357235978381
aF661.3756613752381
aF2662.2296173021937
aF334.00133600553374
aF1942.3761735147543
aF1328.4623048859385
aF30273.43749997932
asS'f_805'
p191
(lp192
F1342.2818791993525
aF0.0
aF1642.5755584702058
aF332.6679973387864
aF327.01111837811794
aF651.8904823989309
aF327.3322422259476
aF0.0
aF0.0
aF0.0
aF0.0
aF0.0
aF682.5938566557838
aF319.7953309882905
aF327.01111837805564
aF0.0
aF660.0660066002898
aF1619.1709844525785
aF0.0
aF661.5944426069343
aF645.1612903228621
aF1305.9092393131527
aF0.0
aF669.5681285567084
aF1365.1877133143448
aF1967.858314197037
aF0.0
aF981.6753926697271
aF0.0
aF338.6386725364836
aF335.2329869261742
aF1301.2361743696522
aF0.0
aF0.0
aF0.0
aF648.9292667100983
aF1023.5414534279275
aF0.0
aF977.8357235985638
aF679.8096532968426
aF322.68473701195376
aF0.0
aF0.0
aF0.0
aF342.2313483914018
aF330.90668431511637
aF637.9585326955278
aF0.0
aF1275.103602171921
aF0.0
aF976.880494954238
aF0.0
aF722.0216606499162
aF0.0
aF0.0
aF0.0
aF651.8904823985587
aF330.68783068761905
aF998.3361064891164
aF1336.005344026385
aF971.1880867594368
aF664.2311524408562
aF0.0
asS'f_1430'
p193
(lp194
F0.0
aF322.2687721561696
aF985.5453350852586
aF665.3359946775728
aF0.0
aF325.94524119946544
aF0.0
aF0.0
aF0.0
aF0.0
aF0.0
aF0.0
aF0.0
aF319.7953309882905
aF327.01111837805564
aF0.0
aF330.0330033001449
aF0.0
aF0.0
aF0.0
aF967.7419354842933
aF0.0
aF0.0
aF0.0
aF341.29692832750055
aF655.9527714004033
aF1033.7698139214976
aF0.0
aF0.0
aF0.0
aF0.0
aF325.3090435913782
aF0.0
aF0.0
aF0.0
aF0.0
aF341.1804844759758
aF324.149108589902
aF651.8904823990425
aF0.0
aF0.0
aF325.0975292589533
aF0.0
aF648.2982171798221
aF1026.6940451742055
aF0.0
aF318.9792663477639
aF329.2723081990804
aF637.5518010839324
aF0.0
aF0.0
aF324.4646333549798
aF361.0108303249581
aF0.0
aF988.793671719915
aF1611.3438607732821
aF325.94524119927934
aF330.68783068761905
aF665.5574043260775
aF0.0
aF0.0
aF332.1155762204281
aF651.0416666663779
asS'f_151'
p195
(lp196
F335.57046979877066
aF5800.837898809002
aF1971.0906701663368
aF8649.367930804214
aF981.0333551343539
aF21186.440677928967
aF3927.9869067134537
aF2604.166666666932
aF0.0
aF2923.9766081868124
aF1076.8126346020265
aF673.1740154828309
aF0.0
aF639.590661976581
aF3270.111183780557
aF19677.419354817393
aF0.0
aF2266.83937823773
aF0.0
aF1653.9861065120745
aF1290.3225806498288
aF1632.3865491310555
aF1018.3299388999708
aF669.5681285567084
aF1365.1877133143448
aF1311.9055428049799
aF1033.7698139214976
aF1308.9005235637997
aF994.6949602116548
aF4063.6640704399583
aF1005.6989607785226
aF2277.1633051365434
aF333.11125916058904
aF320.8213025344819
aF0.0
aF973.3939000651476
aF1705.9024223744527
aF2917.3419773080873
aF2933.5071707946545
aF0.0
aF2904.162633106557
aF3576.0728218495206
aF1622.323166770378
aF1944.894651535342
aF2395.6194387365467
aF2316.346790202657
aF1594.8963317337461
aF329.2723081990804
aF7331.845712468265
aF342.9355281207889
aF1953.7609899043327
aF1622.3231667697385
aF722.0216606499162
aF1291.5724895110775
aF2966.3810151586963
aF8701.256848200328
aF13363.754889212963
aF992.0634920628572
aF4326.12312812268
aF1336.005344026385
aF11977.986403404488
aF3653.2713384257663
aF2278.6458333292157
asS'f_1285'
p197
(lp198
F10738.25503359482
aF2578.1501772473066
aF2956.63600525473
aF13306.719893593785
aF981.0333551343539
aF0.0
aF654.6644844518952
aF0.0
aF10392.222594706767
aF6497.725795972992
aF1076.8126346020265
aF8078.088185787547
aF1365.1877133159103
aF0.0
aF36952.256376733814
aF1290.3225806504922
aF330.0330033001449
aF20077.720207236696
aF3569.110966904522
aF12570.294409571738
aF5806.451612903707
aF326.4773098272496
aF339.4433129666569
aF2343.4884499452846
aF30034.12969280702
aF0.0
aF6547.208821501722
aF2290.57591622624
aF8952.254641901729
aF11175.07619373951
aF3017.0968823345015
aF2602.4723487289566
aF7994.670219847781
aF3529.0343278803216
aF3824.7566064006464
aF1297.8585334243253
aF6141.248720565394
aF2593.1928687171544
aF5215.123859188193
aF339.9048266484213
aF4840.271055174174
aF17555.26657993591
aF44776.11940304409
aF972.4473257697333
aF6160.164271043056
aF330.90668431511637
aF0.0
aF1975.633849190293
aF956.3277016258987
aF1714.6776405984901
aF5210.02930641846
aF2595.7170668377744
aF0.0
aF968.6793671302268
aF659.1957811466099
aF1289.0750886268268
aF325.94524119927934
aF28769.841269809185
aF13643.926788727993
aF334.00133600553374
aF16186.46811260579
aF19262.703420740465
aF325.52083333318893
asS'f_152'
p199
(lp200
F9060.402684563605
aF19980.663873643556
aF7227.3324572939855
aF17964.071856245788
aF5559.189012424884
aF30638.852672743535
aF12438.625204625576
aF23763.020833326696
aF4358.028830041075
aF13320.337881787005
aF38765.25484568208
aF14136.65432518442
aF7849.829351544771
aF9913.655260638023
aF148136.03662552242
aF53225.80645162758
aF10561.056105638232
aF33354.92227983231
aF11356.26216745632
aF37710.88322860999
aF11935.483871010916
aF1958.8638589593438
aF4412.7630685697795
aF19082.691663820395
aF26621.16040952116
aF28533.945555903985
aF19297.03652648639
aF27814.136125626654
aF9283.819628640002
aF4063.6640704399583
aF2011.3979215527797
aF19843.851659033717
aF16322.451698814824
aF7378.889958296146
aF1043.1154381089657
aF2271.252433482248
aF4094.1658137138807
aF19124.797406761943
aF16297.26205992422
aF3738.9530931337163
aF64536.94740239075
aF32834.85045515532
aF4542.504866975637
aF8427.876823333563
aF15400.410677662072
aF4963.600264721483
aF21052.63157891792
aF39841.94929211072
aF86069.49314630045
aF4458.161865573528
aF10094.431781194828
aF7787.151200513323
aF8303.249097477483
aF19373.58734256345
aF32630.191166756144
aF31582.339671254747
aF30312.90743152572
aF38359.78835978064
aF31281.198003319296
aF6680.026720110676
aF29459.37196502698
aF32547.326469599848
aF14322.916666705874
asS'f_708'
p201
(lp202
F0.0
aF0.0
aF657.0302233901723
aF332.6679973387864
aF1308.0444735166327
aF0.0
aF0.0
aF325.5208333336254
aF0.0
aF324.88628979864956
aF358.93754486734207
aF0.0
aF682.5938566557838
aF639.590661976581
aF0.0
aF0.0
aF0.0
aF0.0
aF0.0
aF0.0
aF645.1612903228621
aF0.0
aF0.0
aF1004.3521928350626
aF0.0
aF0.0
aF0.0
aF0.0
aF0.0
aF338.6386725364836
aF335.2329869261742
aF0.0
aF333.11125916058904
aF320.8213025344819
aF0.0
aF648.9292667100983
aF0.0
aF324.149108589902
aF0.0
aF339.9048266484213
aF322.68473701195376
aF0.0
aF0.0
aF0.0
aF0.0
aF0.0
aF318.9792663477639
aF0.0
aF318.7759005419662
aF342.9355281207889
aF325.62683165141266
aF0.0
aF0.0
aF322.8931223767422
aF0.0
aF644.5375443113631
aF0.0
aF330.68783068761905
aF0.0
aF0.0
aF0.0
aF0.0
aF0.0
asS'f_301'
p203
(lp204
F1342.2818791993525
aF322.2687721561696
aF1642.5755584702058
aF332.6679973387864
aF2289.077828643705
aF1629.7262059921432
aF2291.325695578509
aF3255.2083333362543
aF1340.9319477082272
aF2274.2040285874464
aF3230.4379038049374
aF673.1740154828309
aF1023.8907849836758
aF319.7953309882905
aF327.01111837805564
aF2258.0645161281
aF1650.1650164954756
aF2266.83937823773
aF0.0
aF4300.36387694823
aF8709.677419355561
aF1305.9092393131527
aF0.0
aF2008.7043856658654
aF3412.9692832750056
aF15414.890127854185
aF344.5899379738325
aF327.225130889909
aF0.0
aF1693.1933626770322
aF335.2329869261742
aF1301.2361743696522
aF1332.4450366465949
aF0.0
aF347.7051460363218
aF2920.1817001944105
aF0.0
aF2593.1928687171544
aF5215.123859188193
aF1359.6193065980103
aF2258.793159080597
aF0.0
aF324.4646333551077
aF972.4473257697333
aF8213.552361387112
aF0.0
aF12440.191387602365
aF329.2723081990804
aF9244.501115716006
aF342.9355281207889
aF2605.01465320923
aF973.3939000649394
aF361.0108303249581
aF6457.862447534845
aF988.793671719915
aF1289.0750886268268
aF1629.7262059912125
aF992.0634920628572
aF998.3361064891164
aF3006.0120240487418
aF1942.3761735147543
aF4649.61806709022
aF3580.729166666114
asS'f_5'
p205
(lp206
F30536.912751678527
aF2578.1501772473066
aF9526.938239156454
aF33599.46773121849
aF5232.177894045726
aF325.94524119946544
aF654.6644844518952
aF0.0
aF23131.07609786028
aF12995.451591987321
aF3948.312993541905
aF24234.264557351937
aF5802.0477815709055
aF0.0
aF94833.22432962574
aF5161.290322581447
aF0.0
aF22020.725388592153
aF5191.434133673675
aF48296.39431024939
aF8064.516129030646
aF1632.3865491310555
aF3394.4331296665696
aF4352.1928356217995
aF33447.098976092886
aF1311.9055428049799
aF25155.065472060178
aF8835.07853402442
aF19230.769230714362
aF17609.210971845445
aF15420.717398653067
aF4229.017566691022
aF15989.340439653177
aF4812.319538012126
aF14255.910987534546
aF2920.1817001944105
aF18423.746161652773
aF9400.324149106129
aF11734.028683220093
aF339.9048266484213
aF7099.064214265036
aF40962.288686655
aF53536.664503556654
aF3241.491085899111
aF18822.724161478112
aF330.90668431511637
aF318.9792663477639
aF2963.4507737906765
aF956.3277016258987
aF3429.355281207889
aF11071.31227618325
aF1297.8585334240477
aF361.0108303249581
aF6457.862447534845
aF1977.587343435636
aF2900.418949400109
aF325.94524119927934
aF30753.96825394121
aF28286.18968384242
aF2338.009352035549
aF22013.596633180947
aF33543.6731982643
aF976.5624999995669
asS'f_6'
p207
(lp208
F23154.362416082084
aF1289.0750886287788
aF985.5453350852586
aF332.6679973387864
aF38587.31196863664
aF325.94524119946544
aF1636.6612111245317
aF3906.2500000055757
aF30841.43479718259
aF9096.816114360121
aF213208.90165119438
aF15819.589363789783
aF161774.74402728397
aF639.590661976581
aF0.0
aF8709.67741936004
aF6600.660066002899
aF8095.8549222834945
aF324.46463335486266
aF13231.888852180777
aF322.58064516143105
aF8161.9327456760475
aF52613.713509783236
aF118178.77469042197
aF19112.627986292264
aF43948.8356838625
aF0.0
aF327.225130889909
aF663.1299734744365
aF1693.1933626770322
aF670.4659738523484
aF325.3090435913782
aF0.0
aF1604.106512667307
aF695.4102920726436
aF0.0
aF9553.053565325154
aF324.149108589902
aF325.94524119952126
aF0.0
aF3872.216844145498
aF975.2925877768599
aF0.0
aF648.2982171798221
aF35249.828884317656
aF2978.160158834995
aF5741.6267942577215
aF0.0
aF318.7759005419662
aF8573.388203014267
aF651.2536633028253
aF2920.181700193786
aF0.0
aF0.0
aF0.0
aF0.0
aF0.0
aF330.68783068761905
aF0.0
aF6346.025384104079
aF0.0
aF1660.5778810968584
aF4231.770833334563
asS'f_7'
p209
(lp210
F61073.82550335705
aF32226.877215616958
aF14454.66491462977
aF13306.719893593785
aF13734.466971924643
aF1303.7809648020093
aF49427.168576067066
aF34179.68750003584
aF35199.46362723433
aF14944.769330785419
aF28356.06604449605
aF15819.589363789783
aF51877.133105787456
aF12152.222577593697
aF16677.56703722987
aF29032.258064533464
aF54455.44554448717
aF30440.41450779913
aF255678.13108320656
aF50611.974859381015
aF2258.064516126939
aF4244.205027757361
aF17651.052274214333
aF61265.48376292072
aF26621.16040952116
aF3607.740242703262
aF3101.3094417633965
aF10798.429319401348
aF7294.4297082209105
aF9481.882831019388
aF5028.494803887281
aF5855.562784642739
aF6329.113924050133
aF2887.391722809317
aF7997.2183588387215
aF3244.6463335504923
aF4094.1658137138807
aF648.298217179804
aF9452.41199478508
aF5098.572399720914
aF1613.4236850546365
aF2275.6827048095706
aF7462.6865671705755
aF4862.2366288435105
aF7186.858316220527
aF2978.160158834995
aF0.0
aF3621.995390190932
aF0.0
aF3086.419753086009
aF2605.01465320923
aF14276.443867664524
aF3971.119133575688
aF322.8931223767422
aF9558.338826624797
aF644.5375443113631
aF2281.616688391845
aF6613.756613752382
aF6988.352745424873
aF8684.034736139629
aF9388.151505340193
aF2656.9246097613122
aF2929.687499997665
asS'f_1'
p211
(lp212
F65771.81208055478
aF274895.2626488569
aF146189.22470477837
aF266134.3978708175
aF26160.88947022863
aF205671.44719710224
aF111292.9623571762
aF112955.72916629893
aF55648.67582967815
aF180961.6634175967
aF58865.757358203
aF101312.68933016714
aF40955.63139936874
aF98816.75727539093
aF273708.3060824711
aF281612.90322573856
aF75577.55775576363
aF199158.03108790412
aF69759.89617131096
aF124379.7552100784
aF97096.77419359177
aF71172.05354235912
aF40393.754243052696
aF104117.84399057987
aF185324.23208220518
aF230895.37553305048
aF134045.48587158957
aF149214.6596858568
aF133289.12466794197
aF94141.55096511876
aF36875.628561889826
aF207547.16981175257
aF79946.7021984778
aF71222.32916267744
aF24339.36022250935
aF101232.96560678774
aF62777.20914356219
aF245380.8752025115
aF119621.90351977535
aF106050.30591432044
aF198451.11326195637
aF238296.48894632986
aF92147.95587283409
aF126742.30145864596
aF240930.8692676601
aF499669.09331530996
aF143221.6905899928
aF104708.59400732642
aF563277.0162576208
aF24348.422496544375
aF139042.65711476683
aF91823.49123944173
aF120216.60649836379
aF182434.61414241255
aF235332.89386945928
aF273606.1875604289
aF279335.0717078415
aF323082.01058199006
aF341763.72712168115
aF79158.31663324457
aF229524.11783759246
aF224510.12952530102
aF163085.93750003222
asS'f_2689'
p213
(lp214
F1006.7114093963121
aF966.8063164685087
aF2956.63600525473
aF1330.6719893593784
aF1308.0444735166327
aF0.0
aF654.6644844518952
aF2929.687500001593
aF2681.8638954057906
aF3248.862897986496
aF3589.3754486734215
aF673.1740154828309
aF2730.3754266209644
aF3837.5439718615207
aF0.0
aF1612.903225802854
aF1320.132013204779
aF2266.83937823773
aF1946.7878001250476
aF2646.3777704256327
aF2903.2258064518537
aF3591.2504081007846
aF7128.3095723008755
aF2343.4884499452846
aF341.29692832750055
aF1311.9055428049799
aF6202.618883526793
aF654.450261779818
aF331.56498673721825
aF1693.1933626770322
aF8716.057660076263
aF2602.4723487289566
aF2998.001332444242
aF5133.140840547629
aF1043.1154381089657
aF648.9292667100983
aF1023.5414534279275
aF1296.5964343637327
aF1303.7809648022323
aF2379.3337865357057
aF2581.4778960935773
aF1625.487646289596
aF1622.323166770378
aF0.0
aF4106.776180698999
aF0.0
aF637.9585326955278
aF0.0
aF0.0
aF3086.419753086009
aF2930.6414848616782
aF2595.7170668377744
aF3610.1083032495817
aF2906.038101389653
aF329.59789057330494
aF644.5375443113631
aF977.8357235978381
aF2314.8148148101777
aF1996.6722129739985
aF0.0
aF2266.1055357689297
aF1328.4623048859385
aF7486.979166666452
asS'f_3'
p215
(lp216
F26510.067114080466
aF51563.00354494613
aF137319.31668877383
aF51230.87159012443
aF40549.37867891159
aF419817.47066500277
aF117839.60720171597
aF177408.8541663547
aF103586.99296014063
aF70825.21117612421
aF40918.880114892985
aF26253.786603806853
aF41296.92832769772
aF55644.3875919361
aF37279.267495112916
aF49032.25806451348
aF83828.38283818853
aF11010.362694347583
aF9085.009733934092
aF14885.874958703374
aF69032.25806456062
aF104799.2164544651
aF56008.1466394606
aF65282.89253427374
aF15358.36177478638
aF192522.13840579617
aF72019.29703654085
aF195680.62827257987
aF60013.26259941646
aF89400.6095495929
aF61682.86959439899
aF68965.5172413846
aF24317.121918694393
aF22457.49117738312
aF17385.25730176079
aF79169.3705385742
aF41282.83862161587
aF92058.34683951568
aF45306.388526773895
aF170632.2229771853
aF31300.419490156433
aF33159.9479844153
aF2595.717066838798
aF27228.525121536037
aF10609.171800134545
aF169093.3156851413
aF140988.8357253484
aF94501.15245312247
aF60248.64520242046
aF49725.651577454395
aF106479.973949522
aF64568.46203763995
aF163537.90613749658
aF65870.19696485953
aF47462.0962424972
aF163712.536255402
aF43024.77183833805
aF13227.51322754684
aF28951.747088170614
aF53774.215096849504
aF33020.394949822905
aF30886.74858849242
aF72265.62499999072
asS'f_8'
p217
(lp218
F21812.080536882735
aF22558.814050901117
aF0.0
aF665.3359946775728
aF8175.277959447747
aF977.8357235983965
aF95581.01472996837
aF8138.020833335457
aF28494.80388869319
aF1949.3177387877636
aF717.8750897346841
aF3702.4570851566414
aF8532.423208191869
aF2878.1579788935974
aF3270.111183780557
aF12258.064516179677
aF51485.14851477642
aF323.83419689154584
aF14925.373134371162
aF2646.3777704256327
aF0.0
aF1305.9092393131527
aF26476.578411375485
aF10043.521928350627
aF1023.8907849825017
aF3935.7166284045065
aF30323.914541684106
aF54973.82198947141
aF123673.74005316487
aF30138.841855735198
aF41568.8903788712
aF21470.396876995783
aF1332.4450366465949
aF4491.49823548683
aF113351.87760775909
aF15249.83776763261
aF21153.19003746926
aF11345.218800682662
aF13037.809648022323
aF59823.249490096205
aF1936.1084220676166
aF23732.11963587567
aF2920.1817001949375
aF0.0
aF684.4626967828036
aF9927.200529453492
aF956.9377990432918
aF658.5446163981608
aF318.7759005419662
aF12688.61454050955
aF10745.6854445308
aF1297.8585334240477
aF98555.95667868256
aF2583.1449790118836
aF37574.15952537145
aF1611.3438607732821
aF48891.78617984006
aF992.0634920628572
aF0.0
aF77488.30995331783
aF11330.527678896138
aF19926.93457318343
aF2929.687499997665
asS'f_155'
p219
(lp220
F0.0
aF0.0
aF328.51511169508615
aF0.0
aF981.0333551343539
aF0.0
aF327.3322422259476
aF0.0
aF0.0
aF0.0
aF717.8750897346841
aF336.58700774141545
aF1023.8907849836758
aF0.0
aF0.0
aF645.1612903231938
aF0.0
aF0.0
aF0.0
aF0.0
aF0.0
aF0.0
aF0.0
aF334.7840642783542
aF0.0
aF0.0
aF1033.7698139214976
aF327.225130889909
aF0.0
aF677.2773450729673
aF335.2329869261742
aF0.0
aF333.11125916058904
aF0.0
aF0.0
aF1297.8585334243253
aF682.3609689519516
aF0.0
aF0.0
aF0.0
aF0.0
aF0.0
aF0.0
aF0.0
aF342.2313483914018
aF0.0
aF318.9792663477639
aF0.0
aF0.0
aF0.0
aF0.0
aF324.4646333549798
aF0.0
aF0.0
aF0.0
aF322.2687721556816
aF0.0
aF992.0634920628572
aF332.77870216303876
aF0.0
aF0.0
aF0.0
aF0.0
asS'f_89'
p221
(lp222
F0.0
aF0.0
aF328.51511169508615
aF665.3359946775728
aF0.0
aF0.0
aF0.0
aF976.5625000008762
aF335.23298692599036
aF649.7725795972991
aF0.0
aF0.0
aF0.0
aF0.0
aF327.01111837805564
aF322.5806451615969
aF330.0330033001449
aF0.0
aF0.0
aF0.0
aF322.58064516143105
aF326.4773098272496
aF0.0
aF669.5681285567084
aF1706.4846416320745
aF655.9527714004033
aF0.0
aF0.0
aF331.56498673721825
aF338.6386725364836
aF0.0
aF325.3090435913782
aF333.11125916058904
aF320.8213025344819
aF0.0
aF0.0
aF0.0
aF324.149108589902
aF325.94524119952126
aF0.0
aF645.3694740239075
aF325.0975292589533
aF0.0
aF1620.7455429443999
aF684.4626967828036
aF0.0
aF637.9585326955278
aF329.2723081990804
aF318.7759005419662
aF0.0
aF325.62683165141266
aF324.4646333549798
aF361.0108303249581
aF322.8931223767422
aF329.59789057330494
aF966.8063164670448
aF1629.7262059912125
aF330.68783068761905
aF1996.6722129739985
aF334.00133600553374
aF323.72936225314555
aF332.1155762204281
aF651.0416666663779
asS'f_88'
p223
(lp224
F1006.7114093963121
aF0.0
aF1642.5755584702058
aF332.6679973387864
aF327.01111837811794
aF325.94524119946544
aF3600.6546644864648
aF6835.937500007169
aF6369.426751592751
aF649.7725795972991
aF1076.8126346020265
aF1009.7610232242465
aF1023.8907849836758
aF319.7953309882905
aF981.0333551341671
aF322.5806451615969
aF1980.1980197966705
aF0.0
aF324.46463335486266
aF4300.36387694823
aF322.58064516143105
aF0.0
aF1697.2165648278858
aF334.7840642783542
aF341.29692832750055
aF327.97638570020166
aF344.5899379738325
aF327.225130889909
aF331.56498673721825
aF677.2773450729673
aF335.2329869261742
aF0.0
aF666.2225183211781
aF0.0
aF1390.8205841497115
aF648.9292667100983
aF341.1804844759758
aF0.0
aF0.0
aF0.0
aF0.0
aF0.0
aF648.9292667102154
aF0.0
aF0.0
aF0.0
aF0.0
aF0.0
aF0.0
aF0.0
aF0.0
aF0.0
aF722.0216606499162
aF0.0
aF0.0
aF322.2687721556816
aF0.0
aF0.0
aF332.77870216303876
aF0.0
aF0.0
aF996.3467286612845
aF0.0
asS'f_135'
p225
(lp226
F1006.7114093963121
aF1289.0750886287788
aF1971.0906701663368
aF1330.6719893593784
aF4578.1556572978125
aF0.0
aF327.3322422259476
aF1627.6041666629494
aF2346.6309084787335
aF3898.6354775858617
aF7537.688442215326
aF5385.392123858365
aF4436.8600682658525
aF5116.72529580858
aF0.0
aF4516.129032266462
aF0.0
aF2590.6735751303067
aF648.9292667097253
aF1653.9861065120745
aF7419.3548387159935
aF2285.341168787632
aF7807.196198236349
aF4017.40877134238
aF682.5938566550011
aF1639.881928495792
aF7925.568573401437
aF1308.9005235637997
aF0.0
aF1015.916017609451
aF3352.3298692617423
aF1951.8542615441304
aF4996.668887403538
aF2566.5704202738143
aF695.4102920726436
aF6813.757300457065
aF4776.526782668004
aF1296.5964343637327
aF977.8357235985638
aF1359.6193065980103
aF5485.640529200134
aF325.0975292589533
aF0.0
aF324.14910858991107
aF6160.164271043056
aF330.90668431511637
aF4784.688995211385
aF0.0
aF0.0
aF1371.742112487519
aF1953.7609899043327
aF1297.8585334240477
aF722.0216606499162
aF1291.5724895110775
aF988.793671719915
aF2900.418949400109
aF325.94524119927934
aF0.0
aF332.77870216303876
aF668.0026720110675
aF971.1880867594368
aF1660.5778810968584
aF13997.39583337165
asS'f_2'
p227
(lp228
F202013.42281864857
aF115049.9516592984
aF128777.92378404741
aF97139.05522291717
aF55591.89012424884
aF15319.426336319926
aF121767.59410760684
aF110677.0833337847
aF116996.312436903
aF97790.77322939456
aF50610.19382622787
aF133961.62908129537
aF48464.163822497685
aF38375.43971861521
aF129823.4139956689
aF56451.61290325381
aF146864.68646903167
aF64766.839378309174
aF94419.20830625575
aF89976.84419451361
aF86774.19354839316
aF105778.64838374226
aF113034.62321804036
aF51891.52996309698
aF89078.4982934353
aF119711.38078095442
aF196760.85458324582
aF72971.20418847365
aF198275.86206927628
aF161192.0081274481
aF193429.43345616473
aF186727.3910214242
aF231179.21385754843
aF258902.79114533408
aF270166.89847019664
aF68462.03763792673
aF155237.1204370628
aF95623.98703401595
aF337679.26988232665
aF153976.88647200845
aF126169.73217166468
aF257477.24317308274
aF329656.06748839316
aF285251.21555899805
aF68446.26967828037
aF11581.733951065915
aF48165.869218462634
aF92196.24629572156
aF32515.14185528258
aF216735.2537721553
aF109736.24226604648
aF247890.97988337383
aF209386.2815879934
aF216015.49887011142
aF168424.5220830752
aF19013.857557143183
aF181225.55410696106
aF189484.12698439808
aF110149.7504158928
aF229458.91783568167
aF136613.79087043818
aF202922.61707090453
aF51757.81249993459
asS'f_407'
p229
(lp230
F335.57046979877066
aF644.5375443123392
aF657.0302233901723
aF665.3359946775728
aF327.01111837811794
aF0.0
aF981.9967266778428
aF325.5208333336254
aF335.23298692599036
aF324.88628979864956
aF0.0
aF336.58700774141545
aF341.2969283278919
aF319.7953309882905
aF0.0
aF0.0
aF1650.1650164954756
aF0.0
aF0.0
aF0.0
aF0.0
aF979.431929481749
aF339.4433129666569
aF334.7840642783542
aF0.0
aF327.97638570020166
aF0.0
aF0.0
aF331.56498673721825
aF677.2773450729673
aF335.2329869261742
aF975.9271307741348
aF666.2225183211781
aF641.6426050689638
aF0.0
aF0.0
aF0.0
aF0.0
aF651.8904823990425
aF1019.7144799452641
aF0.0
aF2600.7802340695584
aF1297.8585334245595
aF1620.7455429443999
aF684.4626967828036
aF0.0
aF0.0
aF658.5446163981608
aF0.0
aF685.8710562415778
aF0.0
aF973.3939000649394
aF1805.0541516190488
aF322.8931223767422
aF659.1957811466099
aF0.0
aF651.8904823985587
aF330.68783068761905
aF1331.1148086563894
aF2004.008016028953
aF0.0
aF0.0
aF325.52083333318893
asS'f_157'
p231
(lp232
F335.57046979877066
aF322.2687721561696
aF0.0
aF0.0
aF327.01111837811794
aF0.0
aF0.0
aF325.5208333336254
aF335.23298692599036
aF0.0
aF0.0
aF336.58700774141545
aF341.2969283278919
aF0.0
aF327.01111837805564
aF322.5806451615969
aF0.0
aF0.0
aF0.0
aF0.0
aF322.58064516143105
aF0.0
aF678.8866259333138
aF334.7840642783542
aF0.0
aF0.0
aF0.0
aF1636.1256544443406
aF0.0
aF3725.0253979023973
aF335.2329869261742
aF325.3090435913782
aF0.0
aF0.0
aF347.7051460363218
aF324.46463335504916
aF0.0
aF0.0
aF0.0
aF0.0
aF0.0
aF0.0
aF0.0
aF0.0
aF0.0
aF0.0
aF0.0
aF0.0
aF0.0
aF685.8710562415778
aF0.0
aF648.9292667099596
aF0.0
aF0.0
aF0.0
aF0.0
aF0.0
aF0.0
aF0.0
aF334.00133600553374
aF0.0
aF664.2311524408562
aF0.0
asS'f_85'
p233
(lp234
F0.0
aF322.2687721561696
aF328.51511169508615
aF0.0
aF327.01111837811794
aF325.94524119946544
aF0.0
aF325.5208333336254
aF335.23298692599036
aF0.0
aF1794.6877243310016
aF0.0
aF341.2969283278919
aF319.7953309882905
aF3597.122302159653
aF967.7419354847908
aF660.0660066002898
aF971.5025906746375
aF324.46463335486266
aF330.79722130346715
aF0.0
aF326.4773098272496
aF339.4433129666569
aF334.7840642783542
aF682.5938566550011
aF0.0
aF689.179875947665
aF981.6753926697271
aF331.56498673721825
aF0.0
aF0.0
aF325.3090435913782
aF333.11125916058904
aF320.8213025344819
aF0.0
aF0.0
aF0.0
aF972.4473257697061
aF325.94524119952126
aF0.0
aF1290.7389480519207
aF0.0
aF0.0
aF0.0
aF684.4626967828036
aF330.90668431511637
aF318.9792663477639
aF1317.0892328005114
aF3506.5349059626424
aF342.9355281207889
aF1302.5073266097938
aF0.0
aF1444.043321304426
aF322.8931223767422
aF988.793671719915
aF644.5375443113631
aF0.0
aF0.0
aF0.0
aF0.0
aF647.4587245062911
aF332.1155762204281
aF651.0416666663779
asS'f_87'
p235
(lp236
F1342.2818791993525
aF0.0
aF657.0302233901723
aF0.0
aF327.01111837811794
aF0.0
aF0.0
aF1302.0833333386433
aF670.4659738519807
aF649.7725795972991
aF0.0
aF1346.3480309699446
aF341.2969283278919
aF0.0
aF1635.0555918850773
aF322.5806451615969
aF0.0
aF0.0
aF0.0
aF2315.580549121113
aF322.58064516143105
aF0.0
aF339.4433129666569
aF0.0
aF1365.1877133143448
aF0.0
aF1033.7698139214976
aF327.225130889909
aF0.0
aF1354.5546901502435
aF670.4659738523484
aF325.3090435913782
aF333.11125916058904
aF0.0
aF0.0
aF648.9292667100983
aF682.3609689519516
aF0.0
aF0.0
aF0.0
aF645.3694740239075
aF0.0
aF973.3939000653234
aF0.0
aF342.2313483914018
aF0.0
aF0.0
aF0.0
aF0.0
aF0.0
aF0.0
aF324.4646333549798
aF361.0108303249581
aF0.0
aF0.0
aF644.5375443113631
aF0.0
aF992.0634920628572
aF665.5574043260775
aF0.0
aF647.4587245062911
aF664.2311524408562
aF651.0416666663779
asS'f_139'
p237
(lp238
F3355.704697987707
aF966.8063164685087
aF75229.96057820503
aF91483.6992681398
aF10791.36690651222
aF0.0
aF1963.9934533515207
aF1302.0833333386433
aF10392.222594706767
aF3248.862897986496
aF2871.5003589364537
aF128239.64994945897
aF14675.767918146035
aF0.0
aF1635.0555918850773
aF2903.225806453346
aF2310.231023097865
aF647.6683937830917
aF1622.323166769153
aF14224.280516094335
aF28387.096774193622
aF1632.3865491310555
aF3394.4331296665696
aF1673.9203213864462
aF102730.37542657874
aF3607.740242703262
aF22742.935906235678
aF1963.3507853352905
aF10610.079575624733
aF25736.539112746905
aF9386.523633930745
aF30904.35914117576
aF50632.91139235868
aF2566.5704202738143
aF28164.116828921055
aF1946.7878001261668
aF12623.677925651262
aF20421.39384112568
aF7496.7405475921
aF7138.00135961793
aF39044.85317846796
aF975.2925877768599
aF26281.635301744118
aF2269.0437601262843
aF5475.701574258075
aF0.0
aF956.9377990432918
aF4939.0846229809695
aF637.5518010839324
aF22633.74485593498
aF8140.670791280137
aF6164.8280337435845
aF2527.0758122712614
aF8718.11430416896
aF3625.576796307403
aF2900.418949400109
aF325.94524119927934
aF81018.51851840882
aF29950.083194662908
aF20374.081496296127
aF11006.798316641964
aF47824.642975682495
aF3580.729166666114
asS'f_720'
p239
(lp240
F19127.516778484027
aF7412.181759594976
aF328.51511169508615
aF5322.6879574163495
aF2943.1000654020213
aF0.0
aF0.0
aF0.0
aF670.4659738519807
aF11695.90643278859
aF0.0
aF5721.979131600851
aF682.5938566557838
aF0.0
aF44800.523217832124
aF10967.741935529184
aF0.0
aF60556.99481870569
aF3569.110966904522
aF3307.9722130346718
aF322.58064516143105
aF326.4773098272496
aF678.8866259333138
aF7030.465349846503
aF10921.501706514759
aF983.9291571006052
aF8959.33838731526
aF8507.853403133471
aF8620.689655163455
aF18286.488316920568
aF8716.057660076263
aF21795.705920588192
aF31312.45836108902
aF2566.5704202738143
aF10431.154381089656
aF9085.009733939314
aF7164.790173996577
aF56077.79578602521
aF10430.247718417859
aF1019.7144799452641
aF1290.7389480519207
aF23732.11963587567
aF17845.55483448448
aF972.4473257697333
aF37987.679671457576
aF661.8133686302327
aF318.9792663477639
aF0.0
aF2868.983104876682
aF8230.452674892389
aF1953.7609899043327
aF26930.564568445778
aF2527.0758122712614
aF3874.717468522961
aF6262.359920891746
aF3544.956493713523
aF0.0
aF13227.51322754684
aF77537.43760402298
aF3006.0120240487418
aF20071.220459655895
aF32215.21089337836
aF651.0416666663779
asS'f_837'
p241
(lp242
F0.0
aF0.0
aF328.51511169508615
aF332.6679973387864
aF327.01111837811794
aF0.0
aF0.0
aF0.0
aF0.0
aF324.88628979864956
aF358.93754486734207
aF673.1740154828309
aF0.0
aF639.590661976581
aF0.0
aF0.0
aF0.0
aF0.0
aF0.0
aF0.0
aF0.0
aF0.0
aF0.0
aF334.7840642783542
aF0.0
aF0.0
aF0.0
aF0.0
aF0.0
aF338.6386725364836
aF0.0
aF0.0
aF333.11125916058904
aF0.0
aF0.0
aF0.0
aF0.0
aF0.0
aF325.94524119952126
aF0.0
aF322.68473701195376
aF0.0
aF0.0
aF324.14910858991107
aF0.0
aF0.0
aF318.9792663477639
aF0.0
aF0.0
aF342.9355281207889
aF0.0
aF0.0
aF0.0
aF0.0
aF0.0
aF322.2687721556816
aF0.0
aF0.0
aF0.0
aF0.0
aF0.0
aF0.0
aF651.0416666663779
asS'f_2125'
p243
(lp244
F0.0
aF322.2687721561696
aF1314.0604467845246
aF332.6679973387864
aF2616.088947022863
aF0.0
aF0.0
aF651.0416666672508
aF670.4659738519807
aF1949.3177387877636
aF2153.6252691994855
aF0.0
aF1023.8907849836758
aF319.7953309882905
aF327.01111837805564
aF1612.903225802854
aF0.0
aF971.5025906746375
aF0.0
aF0.0
aF1612.9032258020247
aF326.4773098272496
aF339.4433129666569
aF1004.3521928350626
aF0.0
aF655.9527714004033
aF0.0
aF0.0
aF0.0
aF677.2773450729673
aF335.2329869261742
aF0.0
aF999.3337774817674
aF0.0
aF347.7051460363218
aF2271.252433482248
aF1023.5414534279275
aF648.298217179804
aF0.0
aF0.0
aF968.0542110358613
aF650.1950585179065
aF0.0
aF0.0
aF342.2313483914018
aF0.0
aF1275.9170653951144
aF0.0
aF318.7759005419662
aF342.9355281207889
aF651.2536633028253
aF0.0
aF361.0108303249581
aF645.7862447534844
aF329.59789057330494
aF1611.3438607732821
aF0.0
aF330.68783068761905
aF665.5574043260775
aF0.0
aF0.0
aF332.1155762204281
aF1627.6041666607673
asS'f_1888'
p245
(lp246
F671.1409395975413
aF0.0
aF657.0302233901723
aF0.0
aF0.0
aF651.8904823989309
aF981.9967266778428
aF0.0
aF0.0
aF324.88628979864956
aF0.0
aF0.0
aF341.2969283278919
aF319.7953309882905
aF0.0
aF0.0
aF0.0
aF0.0
aF648.9292667097253
aF0.0
aF0.0
aF1305.9092393131527
aF0.0
aF334.7840642783542
aF341.29692832750055
aF1311.9055428049799
aF344.5899379738325
aF327.225130889909
aF994.6949602116548
aF0.0
aF0.0
aF325.3090435913782
aF333.11125916058904
aF0.0
aF0.0
aF324.46463335504916
aF0.0
aF324.149108589902
aF1955.6714471929802
aF2379.3337865357057
aF968.0542110358613
aF2925.877763329546
aF1622.323166770378
aF324.14910858991107
aF2395.6194387365467
aF0.0
aF637.9585326955278
aF0.0
aF637.5518010839324
aF0.0
aF976.880494954238
aF324.4646333549798
aF1444.043321304426
aF1937.3587342563449
aF0.0
aF966.8063164670448
aF325.94524119927934
aF661.3756613752381
aF1331.1148086563894
aF0.0
aF323.72936225314555
aF664.2311524408562
aF325.52083333318893
asS'f_1404'
p247
(lp248
F0.0
aF644.5375443123392
aF328.51511169508615
aF332.6679973387864
aF0.0
aF0.0
aF0.0
aF0.0
aF670.4659738519807
aF324.88628979864956
aF0.0
aF336.58700774141545
aF341.2969283278919
aF0.0
aF654.0222367561113
aF0.0
aF0.0
aF647.6683937830917
aF0.0
aF661.5944426069343
aF967.7419354842933
aF979.431929481749
aF339.4433129666569
aF0.0
aF341.29692832750055
aF0.0
aF689.179875947665
aF327.225130889909
aF994.6949602116548
aF1015.916017609451
aF0.0
aF1301.2361743696522
aF0.0
aF320.8213025344819
aF0.0
aF324.46463335504916
aF0.0
aF648.298217179804
aF1303.7809648022323
aF339.9048266484213
aF0.0
aF0.0
aF324.4646333551077
aF648.2982171798221
aF0.0
aF0.0
aF0.0
aF0.0
aF0.0
aF0.0
aF0.0
aF648.9292667099596
aF0.0
aF0.0
aF329.59789057330494
aF966.8063164670448
aF977.8357235978381
aF1653.4391534328358
aF0.0
aF334.00133600553374
aF647.4587245062911
aF1328.4623048859385
aF325.52083333318893
asS'f_1296'
p249
(lp250
F3355.704697987707
aF966.8063164685087
aF985.5453350852586
aF332.6679973387864
aF0.0
aF0.0
aF1636.6612111245317
aF2278.645833332271
aF2681.8638954057906
aF649.7725795972991
aF0.0
aF2019.5220464442102
aF1365.1877133159103
aF0.0
aF0.0
aF967.7419354847908
aF660.0660066002898
aF323.83419689154584
aF2271.2524334809423
aF2315.580549121113
aF0.0
aF0.0
aF678.8866259333138
aF0.0
aF9215.017064839258
aF327.97638570020166
aF689.179875947665
aF654.450261779818
aF331.56498673721825
aF338.6386725364836
aF335.2329869261742
aF650.6180871827564
aF999.3337774817674
aF1604.106512667307
aF347.7051460363218
aF0.0
aF0.0
aF324.149108589902
aF325.94524119952126
aF339.9048266484213
aF0.0
aF1625.487646289596
aF324.4646333551077
aF3889.789303080995
aF0.0
aF0.0
aF0.0
aF658.5446163981608
aF0.0
aF0.0
aF0.0
aF2595.7170668377744
aF361.0108303249581
aF0.0
aF0.0
aF0.0
aF651.8904823985587
aF661.3756613752381
aF665.5574043260775
aF668.0026720110675
aF971.1880867594368
aF996.3467286612845
aF325.52083333318893
asS'f_312'
p251
(lp252
F1006.7114093963121
aF644.5375443123392
aF328.51511169508615
aF0.0
aF654.0222367562359
aF0.0
aF654.6644844518952
aF976.5625000008762
aF0.0
aF0.0
aF1076.8126346020265
aF0.0
aF0.0
aF319.7953309882905
aF0.0
aF0.0
aF990.0990099004349
aF323.83419689154584
aF973.3939000645881
aF661.5944426069343
aF0.0
aF326.4773098272496
aF1697.2165648278858
aF334.7840642783542
aF0.0
aF327.97638570020166
aF0.0
aF327.225130889909
aF663.1299734744365
aF338.6386725364836
aF335.2329869261742
aF0.0
aF666.2225183211781
aF641.6426050689638
aF1043.1154381089657
aF0.0
aF0.0
aF0.0
aF977.8357235985638
aF679.8096532968426
aF0.0
aF325.0975292589533
aF324.4646333551077
aF324.14910858991107
aF684.4626967828036
aF0.0
aF318.9792663477639
aF658.5446163981608
aF0.0
aF1028.8065843623667
aF976.880494954238
aF324.4646333549798
aF722.0216606499162
aF645.7862447534844
aF988.793671719915
aF0.0
aF325.94524119927934
aF330.68783068761905
aF0.0
aF668.0026720110675
aF323.72936225314555
aF0.0
aF0.0
asS'f_1195'
p253
(lp254
F0.0
aF0.0
aF985.5453350852586
aF0.0
aF327.01111837811794
aF3259.452411994655
aF654.6644844518952
aF0.0
aF670.4659738519807
aF0.0
aF358.93754486734207
aF336.58700774141545
aF341.2969283278919
aF0.0
aF0.0
aF0.0
aF660.0660066002898
aF323.83419689154584
aF0.0
aF0.0
aF322.58064516143105
aF652.9546196544992
aF0.0
aF0.0
aF0.0
aF655.9527714004033
aF344.5899379738325
aF1308.9005235637997
aF0.0
aF338.6386725364836
aF670.4659738523484
aF0.0
aF0.0
aF0.0
aF0.0
aF1297.8585334243253
aF0.0
aF324.149108589902
aF325.94524119952126
aF679.8096532968426
aF0.0
aF650.1950585179065
aF0.0
aF0.0
aF684.4626967828036
aF330.90668431511637
aF956.9377990432918
aF658.5446163981608
aF637.5518010839324
aF0.0
aF0.0
aF0.0
aF722.0216606499162
aF0.0
aF0.0
aF0.0
aF0.0
aF0.0
aF0.0
aF668.0026720110675
aF0.0
aF0.0
aF651.0416666663779
asS'f_1191'
p255
(lp256
F0.0
aF644.5375443123392
aF328.51511169508615
aF0.0
aF0.0
aF0.0
aF654.6644844518952
aF0.0
aF335.23298692599036
aF0.0
aF358.93754486734207
aF336.58700774141545
aF0.0
aF0.0
aF0.0
aF0.0
aF0.0
aF0.0
aF0.0
aF330.79722130346715
aF322.58064516143105
aF0.0
aF0.0
aF0.0
aF1023.8907849825017
aF0.0
aF0.0
aF327.225130889909
aF0.0
aF0.0
aF0.0
aF0.0
aF0.0
aF0.0
aF347.7051460363218
aF0.0
aF0.0
aF0.0
aF0.0
aF0.0
aF0.0
aF0.0
aF0.0
aF648.2982171798221
aF342.2313483914018
aF330.90668431511637
aF0.0
aF658.5446163981608
aF0.0
aF342.9355281207889
aF0.0
aF0.0
aF361.0108303249581
aF322.8931223767422
aF659.1957811466099
aF0.0
aF325.94524119927934
aF330.68783068761905
aF0.0
aF334.00133600553374
aF0.0
aF664.2311524408562
aF0.0
asS'f_318'
p257
(lp258
F2013.4228187883543
aF2578.1501772473066
aF15440.210249613665
aF9980.039920163594
aF10791.36690651222
aF7496.740547590817
aF5891.980360064974
aF13997.395833390416
aF3687.5628561869607
aF9421.702404159805
aF10768.126346020264
aF2692.6960619291826
aF341.2969283278919
aF3837.5439718615207
aF6540.222367561114
aF9354.838709685286
aF8250.825082498373
aF4533.678756485762
aF973.3939000645881
aF5954.349983460304
aF13870.96774198566
aF652.9546196544992
aF4752.206381537517
aF12721.794442617927
aF5460.750853235666
aF41653.00098395378
aF7236.388697451579
aF1636.1256544443406
aF1657.8249336808176
aF5418.21876057943
aF670.4659738523484
aF5204.944697457913
aF3331.1125916058913
aF2566.5704202738143
aF695.4102920726436
aF5191.434133676659
aF1023.5414534279275
aF7455.429497570841
aF10430.247718417859
aF3059.143439834711
aF14520.81316558411
aF6501.950585179066
aF2595.717066838798
aF14910.858995183342
aF22587.268993795507
aF1323.626737264676
aF37639.55342905441
aF987.8169245972413
aF17213.89862921953
aF8916.323731136148
aF9443.178117889931
aF6489.292667099597
aF722.0216606499162
aF47788.18211170444
aF5273.566249168686
aF17402.51369635965
aF14993.481095214544
aF7605.820105818395
aF19966.722129739985
aF11690.046760230869
aF4855.940433792035
aF14945.200929966808
aF25390.624999965956
asS'f_97'
p259
(lp260
F335.57046979877066
aF0.0
aF328.51511169508615
aF665.3359946775728
aF327.01111837811794
aF0.0
aF327.3322422259476
aF325.5208333336254
aF1005.6989607779713
aF324.88628979864956
aF717.8750897346841
aF336.58700774141545
aF682.5938566557838
aF639.590661976581
aF0.0
aF322.5806451615969
aF660.0660066002898
aF323.83419689154584
aF1622.323166769153
aF661.5944426069343
aF322.58064516143105
aF0.0
aF339.4433129666569
aF0.0
aF682.5938566550011
aF0.0
aF344.5899379738325
aF327.225130889909
aF0.0
aF0.0
aF335.2329869261742
aF325.3090435913782
aF333.11125916058904
aF0.0
aF0.0
aF324.46463335504916
aF0.0
aF0.0
aF0.0
aF0.0
aF0.0
aF0.0
aF324.4646333551077
aF0.0
aF684.4626967828036
aF0.0
aF0.0
aF0.0
aF0.0
aF0.0
aF0.0
aF973.3939000649394
aF0.0
aF0.0
aF0.0
aF0.0
aF0.0
aF0.0
aF0.0
aF334.00133600553374
aF0.0
aF0.0
aF0.0
asS'f_156'
p261
(lp262
F0.0
aF0.0
aF0.0
aF332.6679973387864
aF0.0
aF325.94524119946544
aF654.6644844518952
aF0.0
aF335.23298692599036
aF324.88628979864956
aF0.0
aF0.0
aF0.0
aF0.0
aF0.0
aF0.0
aF330.0330033001449
aF0.0
aF0.0
aF0.0
aF0.0
aF0.0
aF0.0
aF0.0
aF0.0
aF0.0
aF1722.949689863682
aF327.225130889909
aF663.1299734744365
aF0.0
aF670.4659738523484
aF325.3090435913782
aF0.0
aF641.6426050689638
aF347.7051460363218
aF1297.8585334243253
aF0.0
aF3241.4910858990206
aF0.0
aF1359.6193065980103
aF0.0
aF650.1950585179065
aF0.0
aF1296.5964343637688
aF0.0
aF0.0
aF1275.9170653951144
aF987.8169245972413
aF0.0
aF342.9355281207889
aF1302.5073266097938
aF973.3939000649394
aF722.0216606499162
aF322.8931223767422
aF0.0
aF322.2687721556816
aF651.8904823985587
aF0.0
aF665.5574043260775
aF334.00133600553374
aF647.4587245062911
aF0.0
aF976.5624999995669
asS'f_27'
p263
(lp264
F13087.248322193687
aF30293.26458267379
aF5584.756898813329
aF2994.0119760480193
aF11772.400261649695
aF0.0
aF11783.960720171599
aF1627.6041666629494
aF7039.8927254468645
aF14294.996751186052
aF4307.250538410389
aF7404.914170313283
aF4436.8600682658525
aF1279.1813239572311
aF9483.322432962575
aF7419.354838719808
aF1650.1650164954756
aF5829.015544045765
aF12329.656067524003
aF8600.727753885936
aF5483.87096774125
aF3591.2504081007846
aF6109.979633397666
aF8034.817542674111
aF6484.641638221425
aF3279.763857002017
aF9648.518263265118
aF6217.277486907231
aF11604.774535839553
aF26752.455130359587
aF12068.387529380661
aF28301.886792436457
aF12325.116588981002
aF23099.133782454126
aF16342.141863648507
aF9085.009733939314
aF26270.897304625178
aF14586.709886591992
aF11734.028683220093
aF5438.477226370417
aF3226.8473701195376
aF10403.120936319598
aF10382.868267396476
aF13614.262560819574
aF4106.776180698999
aF661.8133686302327
aF2870.8133971288607
aF7243.990780381864
aF0.0
aF7887.517146781418
aF4884.4024747660105
aF9409.474367293382
aF8664.259927792105
aF11301.259283221929
aF6921.555702040452
aF2255.8814050866954
aF5867.014341584954
aF4298.941798942204
aF22961.730449216862
aF10354.04141617261
aF1942.3761735147543
aF9631.35171039136
aF2929.687499997665
asS'f_109'
p265
(lp266
F0.0
aF0.0
aF328.51511169508615
aF0.0
aF0.0
aF0.0
aF0.0
aF0.0
aF0.0
aF0.0
aF0.0
aF0.0
aF0.0
aF0.0
aF0.0
aF322.5806451615969
aF0.0
aF0.0
aF0.0
aF330.79722130346715
aF0.0
aF0.0
aF0.0
aF0.0
aF341.29692832750055
aF0.0
aF344.5899379738325
aF0.0
aF331.56498673721825
aF0.0
aF335.2329869261742
aF325.3090435913782
aF333.11125916058904
aF0.0
aF0.0
aF648.9292667100983
aF0.0
aF1296.5964343637327
aF325.94524119952126
aF0.0
aF0.0
aF975.2925877768599
aF0.0
aF648.2982171798221
aF0.0
aF0.0
aF1913.875598082525
aF1975.633849190293
aF0.0
aF0.0
aF1953.7609899043327
aF648.9292667099596
aF1444.043321304426
aF0.0
aF0.0
aF644.5375443113631
aF325.94524119927934
aF0.0
aF665.5574043260775
aF0.0
aF323.72936225314555
aF0.0
aF0.0
asS'f_430'
p267
(lp268
F0.0
aF0.0
aF985.5453350852586
aF0.0
aF0.0
aF0.0
aF0.0
aF0.0
aF335.23298692599036
aF0.0
aF0.0
aF0.0
aF0.0
aF0.0
aF327.01111837805564
aF0.0
aF330.0330033001449
aF0.0
aF324.46463335486266
aF0.0
aF0.0
aF326.4773098272496
aF0.0
aF0.0
aF0.0
aF0.0
aF0.0
aF0.0
aF0.0
aF0.0
aF0.0
aF0.0
aF666.2225183211781
aF0.0
aF347.7051460363218
aF0.0
aF341.1804844759758
aF0.0
aF325.94524119952126
aF0.0
aF0.0
aF0.0
aF324.4646333551077
aF0.0
aF0.0
aF0.0
aF318.9792663477639
aF0.0
aF0.0
aF1028.8065843623667
aF325.62683165141266
aF324.4646333549798
aF0.0
aF322.8931223767422
aF0.0
aF0.0
aF651.8904823985587
aF0.0
aF332.77870216303876
aF334.00133600553374
aF0.0
aF0.0
aF0.0
asS'f_636'
p269
(lp270
F3355.704697987707
aF644.5375443123392
aF0.0
aF1663.339986688641
aF327.01111837811794
aF0.0
aF327.3322422259476
aF0.0
aF0.0
aF0.0
aF0.0
aF1346.3480309699446
aF0.0
aF0.0
aF9483.322432962575
aF645.1612903231938
aF0.0
aF5181.3471502606135
aF0.0
aF330.79722130346715
aF0.0
aF0.0
aF0.0
aF334.7840642783542
aF2047.7815699606606
aF0.0
aF1378.3597518997146
aF1963.3507853352905
aF1326.2599469530917
aF677.2773450729673
aF2681.8638954072608
aF975.9271307741348
aF3331.1125916058913
aF0.0
aF2433.936022250935
aF1297.8585334243253
aF341.1804844759758
aF4213.93841167182
aF1629.7262059924221
aF0.0
aF0.0
aF3901.170351109508
aF973.3939000653234
aF0.0
aF14715.94798087709
aF0.0
aF0.0
aF0.0
aF0.0
aF1028.8065843623667
aF0.0
aF973.3939000649394
aF722.0216606499162
aF322.8931223767422
aF988.793671719915
aF644.5375443113631
aF0.0
aF1322.751322754684
aF15640.59900160672
aF1002.0040080166015
aF1942.3761735147543
aF2324.8090335398274
aF325.52083333318893
asS'f_2664'
p271
(lp272
F5704.6979865758985
aF14179.825974916566
aF39093.29829173511
aF6986.027944115573
aF7194.2446043206755
aF76271.1864406065
aF4255.319148940443
aF6510.416666672509
aF4022.7958431140173
aF4873.294346974576
aF22613.06532660031
aF4039.044092899127
aF6484.641638228861
aF5436.5206267978865
aF11772.400261647454
aF1935.483870965477
aF12211.221122144207
aF14248.704663273342
aF3244.6463335486274
aF4961.958319546746
aF23870.96774191922
aF313418.2174341181
aF3054.989816698833
aF9708.737864071207
aF3412.9692832750056
aF18366.677599165392
aF2412.129565813539
aF7853.403141351571
aF3647.2148541104552
aF1015.916017609451
aF335.2329869261742
aF1301.2361743696522
aF333.11125916058904
aF641.6426050689638
aF695.4102920726436
aF2595.7170668383296
aF341.1804844759758
aF3889.789303080887
aF6844.8500651909835
aF1019.7144799452641
aF14520.81316558411
aF8777.633289988637
aF6813.757300458295
aF3241.491085899111
aF20533.880903440564
aF330.90668431511637
aF5422.647527908942
aF329.2723081990804
aF33790.245457454505
aF3086.419753086009
aF9117.551286237484
aF1946.7878001257504
aF1444.043321304426
aF10332.57991608862
aF4614.370468030464
aF12568.482114111563
aF6844.850065185903
aF9589.947089939902
aF10981.697171415213
aF4676.018704081724
aF3237.293622531456
aF10295.582862834328
aF3580.729166666114
asS'f_173'
p273
(lp274
F0.0
aF644.5375443123392
aF328.51511169508615
aF0.0
aF654.0222367562359
aF0.0
aF0.0
aF0.0
aF0.0
aF324.88628979864956
aF0.0
aF336.58700774141545
aF0.0
aF0.0
aF327.01111837805564
aF0.0
aF0.0
aF0.0
aF0.0
aF0.0
aF645.1612903228621
aF0.0
aF0.0
aF334.7840642783542
aF0.0
aF0.0
aF1033.7698139214976
aF0.0
aF663.1299734744365
aF0.0
aF0.0
aF325.3090435913782
aF0.0
aF320.8213025344819
aF0.0
aF0.0
aF0.0
aF0.0
aF325.94524119952126
aF339.9048266484213
aF0.0
aF325.0975292589533
aF324.4646333551077
aF1296.5964343637688
aF0.0
aF0.0
aF0.0
aF0.0
aF0.0
aF0.0
aF0.0
aF648.9292667099596
aF722.0216606499162
aF0.0
aF1318.3915622974137
aF0.0
aF0.0
aF0.0
aF998.3361064891164
aF668.0026720110675
aF647.4587245062911
aF0.0
aF0.0
asS'f_1941'
p275
(lp276
F335.57046979877066
aF322.2687721561696
aF1642.5755584702058
aF1330.6719893593784
aF2943.1000654020213
aF0.0
aF0.0
aF651.0416666672508
aF1676.1649346246202
aF649.7725795972991
aF1076.8126346020265
aF2019.5220464442102
aF1706.4846416340313
aF959.3859929648717
aF0.0
aF0.0
aF0.0
aF0.0
aF324.46463335486266
aF661.5944426069343
aF1290.3225806498288
aF652.9546196544992
aF678.8866259333138
aF1004.3521928350626
aF341.29692832750055
aF983.9291571006052
aF689.179875947665
aF0.0
aF0.0
aF677.2773450729673
aF0.0
aF325.3090435913782
aF999.3337774817674
aF0.0
aF0.0
aF2595.7170668383296
aF341.1804844759758
aF324.149108589902
aF325.94524119952126
aF1019.7144799452641
aF968.0542110358613
aF650.1950585179065
aF0.0
aF0.0
aF0.0
aF0.0
aF1275.9170653951144
aF0.0
aF0.0
aF1371.742112487519
aF0.0
aF0.0
aF0.0
aF0.0
aF0.0
aF322.2687721556816
aF0.0
aF661.3756613752381
aF332.77870216303876
aF0.0
aF323.72936225314555
aF0.0
aF651.0416666663779
asS'f_2339'
p277
(lp278
F0.0
aF322.2687721561696
aF0.0
aF0.0
aF327.01111837811794
aF0.0
aF0.0
aF325.5208333336254
aF0.0
aF0.0
aF0.0
aF336.58700774141545
aF341.2969283278919
aF0.0
aF0.0
aF322.5806451615969
aF0.0
aF647.6683937830917
aF324.46463335486266
aF0.0
aF645.1612903228621
aF0.0
aF0.0
aF0.0
aF0.0
aF0.0
aF0.0
aF0.0
aF0.0
aF338.6386725364836
aF0.0
aF0.0
aF0.0
aF641.6426050689638
aF347.7051460363218
aF0.0
aF0.0
aF0.0
aF0.0
aF339.9048266484213
aF0.0
aF0.0
aF0.0
aF324.14910858991107
aF684.4626967828036
aF0.0
aF0.0
aF329.2723081990804
aF0.0
aF342.9355281207889
aF651.2536633028253
aF0.0
aF0.0
aF0.0
aF988.793671719915
aF0.0
aF0.0
aF0.0
aF0.0
aF0.0
aF647.4587245062911
aF0.0
aF0.0
asS'f_732'
p279
(lp280
F2013.4228187883543
aF644.5375443123392
aF657.0302233901723
aF332.6679973387864
aF654.0222367562359
aF325.94524119946544
aF654.6644844518952
aF325.5208333336254
aF0.0
aF2274.2040285874464
aF0.0
aF2692.6960619291826
aF341.2969283278919
aF0.0
aF0.0
aF1290.3225806504922
aF330.0330033001449
aF4857.512953368037
aF324.46463335486266
aF5954.349983460304
aF645.1612903228621
aF0.0
aF339.4433129666569
aF669.5681285567084
aF2389.078498289247
aF2951.787471300772
aF1722.949689863682
aF1308.9005235637997
aF6299.734748006093
aF677.2773450729673
aF2011.3979215527797
aF8458.035133371695
aF2998.001332444242
aF4491.49823548683
aF347.7051460363218
aF6164.828033744903
aF4435.3462981909415
aF53484.60291729775
aF9452.41199478508
aF12236.573759382094
aF11939.335269480267
aF1950.5851755495833
aF6489.292667102155
aF2593.1928687172267
aF5133.470225865584
aF330.90668431511637
aF12121.212121253586
aF23707.606190304465
aF1593.8795027047609
aF685.8710562415778
aF20188.863562348222
aF13951.979234308512
aF2527.0758122712614
aF3874.717468522961
aF659.1957811466099
aF322.2687721556816
aF12059.973924411697
aF2645.502645498849
aF1663.8935108099013
aF3340.013360055338
aF18452.573648385016
aF12952.507472637899
aF1627.6041666607673
asS'f_1556'
p281
(lp282
F0.0
aF0.0
aF657.0302233901723
aF1663.339986688641
aF0.0
aF11082.138200817079
aF1309.3289689079554
aF651.0416666672508
aF1005.6989607779713
aF324.88628979864956
aF358.93754486734207
aF0.0
aF0.0
aF0.0
aF0.0
aF645.1612903231938
aF2640.26402639906
aF0.0
aF648.9292667097253
aF0.0
aF0.0
aF6529.546196544993
aF0.0
aF0.0
aF1023.8907849825017
aF1967.858314197037
aF0.0
aF1636.1256544443406
aF0.0
aF0.0
aF0.0
aF325.3090435913782
aF333.11125916058904
aF641.6426050689638
aF0.0
aF0.0
aF0.0
aF324.149108589902
aF325.94524119952126
aF0.0
aF322.68473701195376
aF0.0
aF0.0
aF0.0
aF684.4626967828036
aF0.0
aF318.9792663477639
aF0.0
aF956.3277016258987
aF0.0
aF1302.5073266097938
aF324.4646333549798
aF0.0
aF322.8931223767422
aF0.0
aF0.0
aF0.0
aF0.0
aF332.77870216303876
aF0.0
aF323.72936225314555
aF0.0
aF0.0
asS'f_75'
p283
(lp284
F335.57046979877066
aF966.8063164685087
aF328.51511169508615
aF0.0
aF0.0
aF0.0
aF327.3322422259476
aF0.0
aF1340.9319477082272
aF324.88628979864956
aF3948.312993541905
aF0.0
aF2730.3754266209644
aF0.0
aF0.0
aF322.5806451615969
aF660.0660066002898
aF323.83419689154584
aF324.46463335486266
aF330.79722130346715
aF0.0
aF0.0
aF2715.546503731096
aF1339.1362571176767
aF682.5938566550011
aF1311.9055428049799
aF0.0
aF1636.1256544443406
aF0.0
aF1015.916017609451
aF0.0
aF0.0
aF0.0
aF0.0
aF347.7051460363218
aF0.0
aF0.0
aF0.0
aF651.8904823990425
aF339.9048266484213
aF0.0
aF0.0
aF0.0
aF324.14910858991107
aF1368.925393569962
aF0.0
aF0.0
aF2634.1784655905485
aF0.0
aF0.0
aF0.0
aF0.0
aF361.0108303249581
aF0.0
aF0.0
aF0.0
aF325.94524119927934
aF0.0
aF332.77870216303876
aF1002.0040080166015
aF0.0
aF664.2311524408562
aF0.0
asS'f_1345'
p285
(lp286
F0.0
aF0.0
aF328.51511169508615
aF332.6679973387864
aF327.01111837811794
aF1955.6714471926457
aF327.3322422259476
aF651.0416666672508
aF335.23298692599036
aF0.0
aF358.93754486734207
aF0.0
aF682.5938566557838
aF0.0
aF0.0
aF322.5806451615969
aF0.0
aF0.0
aF0.0
aF0.0
aF0.0
aF652.9546196544992
aF0.0
aF0.0
aF0.0
aF655.9527714004033
aF689.179875947665
aF327.225130889909
aF0.0
aF0.0
aF0.0
aF0.0
aF0.0
aF0.0
aF347.7051460363218
aF324.46463335504916
aF0.0
aF0.0
aF0.0
aF679.8096532968426
aF0.0
aF0.0
aF0.0
aF0.0
aF0.0
aF1323.626737264676
aF0.0
aF1317.0892328005114
aF637.5518010839324
aF685.8710562415778
aF325.62683165141266
aF324.4646333549798
aF1444.043321304426
aF645.7862447534844
aF0.0
aF322.2687721556816
aF0.0
aF0.0
aF0.0
aF0.0
aF323.72936225314555
aF0.0
aF0.0
asS'f_2543'
p287
(lp288
F671.1409395975413
aF0.0
aF0.0
aF0.0
aF654.0222367562359
aF0.0
aF0.0
aF0.0
aF0.0
aF649.7725795972991
aF0.0
aF336.58700774141545
aF682.5938566557838
aF0.0
aF0.0
aF0.0
aF0.0
aF0.0
aF648.9292667097253
aF330.79722130346715
aF0.0
aF0.0
aF339.4433129666569
aF334.7840642783542
aF0.0
aF0.0
aF0.0
aF0.0
aF0.0
aF0.0
aF0.0
aF0.0
aF0.0
aF320.8213025344819
aF0.0
aF648.9292667100983
aF0.0
aF0.0
aF0.0
aF0.0
aF0.0
aF0.0
aF0.0
aF0.0
aF0.0
aF0.0
aF0.0
aF0.0
aF0.0
aF0.0
aF0.0
aF0.0
aF0.0
aF322.8931223767422
aF0.0
aF322.2687721556816
aF0.0
aF0.0
aF0.0
aF0.0
aF0.0
aF0.0
aF0.0
asS'f_79'
p289
(lp290
F335.57046979877066
aF1289.0750886287788
aF1314.0604467845246
aF332.6679973387864
aF327.01111837811794
aF1629.7262059921432
aF1636.6612111245317
aF651.0416666672508
aF335.23298692599036
aF974.6588693959487
aF1435.7501794739355
aF336.58700774141545
aF0.0
aF0.0
aF327.01111837805564
aF322.5806451615969
aF660.0660066002898
aF0.0
aF0.0
aF992.3916639104016
aF1290.3225806498288
aF2611.8184786159204
aF0.0
aF669.5681285567084
aF682.5938566550011
aF2623.811085599527
aF344.5899379738325
aF981.6753926697271
aF331.56498673721825
aF338.6386725364836
aF0.0
aF0.0
aF666.2225183211781
aF0.0
aF347.7051460363218
aF324.46463335504916
aF0.0
aF972.4473257697061
aF0.0
aF1699.5241332367007
aF645.3694740239075
aF650.1950585179065
aF324.4646333551077
aF648.2982171798221
aF2737.8507871290376
aF1985.4401058864878
aF637.9585326955278
aF1646.361540990165
aF1912.6554032477413
aF0.0
aF651.2536633028253
aF973.3939000649394
aF722.0216606499162
aF645.7862447534844
aF1318.3915622974137
aF966.8063164670448
aF1629.7262059912125
aF1322.751322754684
aF1663.8935108099013
aF1002.0040080166015
aF647.4587245062911
aF664.2311524408562
aF0.0
asS'f_649'
p291
(lp292
F671.1409395975413
aF0.0
aF657.0302233901723
aF0.0
aF327.01111837811794
aF0.0
aF0.0
aF0.0
aF670.4659738519807
aF324.88628979864956
aF717.8750897346841
aF1346.3480309699446
aF0.0
aF0.0
aF0.0
aF322.5806451615969
aF1650.1650164954756
aF0.0
aF648.9292667097253
aF330.79722130346715
aF645.1612903228621
aF0.0
aF0.0
aF0.0
aF0.0
aF1967.858314197037
aF3790.489317713254
aF327.225130889909
aF994.6949602116548
aF0.0
aF1005.6989607785226
aF325.3090435913782
aF999.3337774817674
aF0.0
aF2086.230876213507
aF973.3939000651476
aF1023.5414534279275
aF0.0
aF651.8904823990425
aF679.8096532968426
aF322.68473701195376
aF650.1950585179065
aF648.9292667102154
aF1296.5964343637688
aF342.2313483914018
aF0.0
aF318.9792663477639
aF0.0
aF318.7759005419662
aF0.0
aF325.62683165141266
aF648.9292667099596
aF1083.0324909748745
aF645.7862447534844
aF659.1957811466099
aF0.0
aF651.8904823985587
aF661.3756613752381
aF665.5574043260775
aF1336.005344026385
aF323.72936225314555
aF996.3467286612845
aF325.52083333318893
asS'f_2789'
p293
(lp294
F1342.2818791993525
aF644.5375443123392
aF328.51511169508615
aF665.3359946775728
aF0.0
aF0.0
aF0.0
aF0.0
aF1340.9319477082272
aF2274.2040285874464
aF717.8750897346841
aF1009.7610232242465
aF1365.1877133159103
aF2878.1579788935974
aF654.0222367561113
aF967.7419354847908
aF330.0330033001449
aF0.0
aF0.0
aF330.79722130346715
aF1612.9032258020247
aF652.9546196544992
aF1697.2165648278858
aF669.5681285567084
aF0.0
aF0.0
aF1722.949689863682
aF654.450261779818
aF1326.2599469530917
aF2370.470707752154
aF2346.63090848002
aF1626.5452179517172
aF2664.8900732825937
aF1924.9278152028094
aF0.0
aF973.3939000651476
aF1705.9024223744527
aF0.0
aF651.8904823990425
aF1019.7144799452641
aF968.0542110358613
aF650.1950585179065
aF324.4646333551077
aF324.14910858991107
aF1026.6940451742055
aF0.0
aF318.9792663477639
aF0.0
aF0.0
aF1371.742112487519
aF1953.7609899043327
aF1946.7878001257504
aF2888.0866425973686
aF1937.3587342563449
aF0.0
aF644.5375443113631
aF0.0
aF1322.751322754684
aF0.0
aF334.00133600553374
aF0.0
aF332.1155762204281
aF4557.291666668787
asS'f_373'
p295
(lp296
F335.57046979877066
aF322.2687721561696
aF985.5453350852586
aF998.0039920163592
aF0.0
aF0.0
aF0.0
aF2604.166666666932
aF335.23298692599036
aF974.6588693959487
aF717.8750897346841
aF2356.109054186696
aF682.5938566557838
aF0.0
aF0.0
aF645.1612903231938
aF0.0
aF0.0
aF324.46463335486266
aF1984.783327816594
aF967.7419354842933
aF0.0
aF678.8866259333138
aF334.7840642783542
aF1365.1877133143448
aF0.0
aF689.179875947665
aF327.225130889909
aF0.0
aF677.2773450729673
aF670.4659738523484
aF325.3090435913782
aF2331.7788141209444
aF962.4639076034458
aF0.0
aF0.0
aF341.1804844759758
aF0.0
aF325.94524119952126
aF0.0
aF0.0
aF0.0
aF324.4646333551077
aF0.0
aF0.0
aF0.0
aF0.0
aF0.0
aF0.0
aF0.0
aF325.62683165141266
aF648.9292667099596
aF0.0
aF0.0
aF0.0
aF644.5375443113631
aF0.0
aF661.3756613752381
aF332.77870216303876
aF0.0
aF1294.9174490167013
aF1328.4623048859385
aF976.5624999995669
asS'f_341'
p297
(lp298
F335.57046979877066
aF0.0
aF657.0302233901723
aF0.0
aF327.01111837811794
aF1955.6714471926457
aF327.3322422259476
aF0.0
aF0.0
aF0.0
aF358.93754486734207
aF0.0
aF0.0
aF0.0
aF0.0
aF0.0
aF990.0990099004349
aF0.0
aF0.0
aF0.0
aF0.0
aF326.4773098272496
aF339.4433129666569
aF0.0
aF0.0
aF327.97638570020166
aF0.0
aF654.450261779818
aF0.0
aF338.6386725364836
aF335.2329869261742
aF325.3090435913782
aF0.0
aF320.8213025344819
aF0.0
aF973.3939000651476
aF341.1804844759758
aF0.0
aF0.0
aF679.8096532968426
aF0.0
aF0.0
aF0.0
aF0.0
aF0.0
aF661.8133686302327
aF637.9585326955278
aF0.0
aF0.0
aF342.9355281207889
aF325.62683165141266
aF0.0
aF0.0
aF0.0
aF0.0
aF322.2687721556816
aF0.0
aF0.0
aF332.77870216303876
aF0.0
aF0.0
aF0.0
aF325.52083333318893
asS'f_1474'
p299
(lp300
F2348.993288588192
aF644.5375443123392
aF985.5453350852586
aF332.6679973387864
aF2289.077828643705
aF1629.7262059921432
aF7528.641571199919
aF20507.81249998009
aF10727.455581665818
aF4548.408057185228
aF1435.7501794739355
aF0.0
aF3754.266211607897
aF319.7953309882905
aF1308.0444735163835
aF1612.903225802854
aF4290.429042905034
aF647.6683937830917
aF1622.323166769153
aF2315.580549121113
aF0.0
aF326.4773098272496
aF11880.515953870785
aF1004.3521928350626
aF1365.1877133143448
aF1639.881928495792
aF689.179875947665
aF327.225130889909
aF331.56498673721825
aF1015.916017609451
aF335.2329869261742
aF650.6180871827564
aF0.0
aF0.0
aF3824.7566064006464
aF1622.3231667700854
aF341.1804844759758
aF324.149108589902
aF651.8904823990425
aF0.0
aF322.68473701195376
aF0.0
aF648.9292667102154
aF324.14910858991107
aF342.2313483914018
aF330.90668431511637
aF0.0
aF0.0
aF0.0
aF685.8710562415778
aF325.62683165141266
aF648.9292667099596
aF1444.043321304426
aF0.0
aF0.0
aF322.2687721556816
aF325.94524119927934
aF0.0
aF0.0
aF2004.008016028953
aF323.72936225314555
aF664.2311524408562
aF0.0
asS'f_622'
p301
(lp302
F0.0
aF0.0
aF328.51511169508615
aF0.0
aF0.0
aF0.0
aF0.0
aF0.0
aF335.23298692599036
aF0.0
aF358.93754486734207
aF336.58700774141545
aF0.0
aF319.7953309882905
aF327.01111837805564
aF0.0
aF0.0
aF0.0
aF0.0
aF0.0
aF0.0
aF652.9546196544992
aF339.4433129666569
aF334.7840642783542
aF0.0
aF0.0
aF689.179875947665
aF0.0
aF331.56498673721825
aF0.0
aF335.2329869261742
aF650.6180871827564
aF0.0
aF0.0
aF0.0
aF648.9292667100983
aF1023.5414534279275
aF0.0
aF651.8904823990425
aF0.0
aF0.0
aF325.0975292589533
aF324.4646333551077
aF0.0
aF342.2313483914018
aF0.0
aF0.0
aF0.0
aF0.0
aF685.8710562415778
aF325.62683165141266
aF324.4646333549798
aF0.0
aF645.7862447534844
aF0.0
aF644.5375443113631
aF0.0
aF330.68783068761905
aF0.0
aF334.00133600553374
aF323.72936225314555
aF0.0
aF976.5624999995669
asS'f_911'
p303
(lp304
F1342.2818791993525
aF0.0
aF985.5453350852586
aF1330.6719893593784
aF981.0333551343539
aF325.94524119946544
aF4909.983633384008
aF13997.395833390416
aF14079.785450936386
aF1299.545159198732
aF1794.6877243310016
aF336.58700774141545
aF2389.0784982919863
aF639.590661976581
aF2289.077828643269
aF322.5806451615969
aF2970.297029700255
aF323.83419689154584
aF973.3939000645881
aF3969.5666556437104
aF0.0
aF2285.341168787632
aF13238.289205741732
aF1004.3521928350626
aF682.5938566550011
aF983.9291571006052
aF689.179875947665
aF327.225130889909
aF0.0
aF677.2773450729673
aF0.0
aF0.0
aF0.0
aF641.6426050689638
aF2086.230876213507
aF324.46463335504916
aF341.1804844759758
aF0.0
aF325.94524119952126
aF0.0
aF0.0
aF650.1950585179065
aF973.3939000653234
aF1620.7455429443999
aF1368.925393569962
aF0.0
aF0.0
aF0.0
aF0.0
aF1028.8065843623667
aF651.2536633028253
aF0.0
aF722.0216606499162
aF322.8931223767422
aF329.59789057330494
aF644.5375443113631
aF325.94524119927934
aF0.0
aF665.5574043260775
aF334.00133600553374
aF323.72936225314555
aF332.1155762204281
aF0.0
asS'f_1632'
p305
(lp306
F0.0
aF0.0
aF0.0
aF332.6679973387864
aF1635.0555918853886
aF0.0
aF0.0
aF0.0
aF670.4659738519807
aF649.7725795972991
aF0.0
aF0.0
aF0.0
aF0.0
aF0.0
aF322.5806451615969
aF0.0
aF0.0
aF0.0
aF330.79722130346715
aF322.58064516143105
aF326.4773098272496
aF678.8866259333138
aF0.0
aF0.0
aF0.0
aF0.0
aF0.0
aF0.0
aF338.6386725364836
aF335.2329869261742
aF0.0
aF0.0
aF0.0
aF0.0
aF648.9292667100983
aF682.3609689519516
aF324.149108589902
aF325.94524119952126
aF339.9048266484213
aF0.0
aF0.0
aF0.0
aF0.0
aF342.2313483914018
aF0.0
aF318.9792663477639
aF0.0
aF0.0
aF0.0
aF0.0
aF324.4646333549798
aF0.0
aF322.8931223767422
aF0.0
aF0.0
aF0.0
aF0.0
aF0.0
aF0.0
aF0.0
aF0.0
aF0.0
asS'f_2106'
p307
(lp308
F335.57046979877066
aF0.0
aF328.51511169508615
aF332.6679973387864
aF981.0333551343539
aF0.0
aF0.0
aF0.0
aF335.23298692599036
aF649.7725795972991
aF0.0
aF336.58700774141545
aF682.5938566557838
aF1598.9766549363662
aF0.0
aF322.5806451615969
aF0.0
aF971.5025906746375
aF0.0
aF1653.9861065120745
aF2903.2258064518537
aF0.0
aF339.4433129666569
aF669.5681285567084
aF682.5938566550011
aF327.97638570020166
aF0.0
aF0.0
aF0.0
aF338.6386725364836
aF0.0
aF0.0
aF666.2225183211781
aF962.4639076034458
aF0.0
aF324.46463335504916
aF682.3609689519516
aF0.0
aF0.0
aF339.9048266484213
aF968.0542110358613
aF325.0975292589533
aF0.0
aF0.0
aF684.4626967828036
aF0.0
aF0.0
aF0.0
aF0.0
aF0.0
aF0.0
aF0.0
aF0.0
aF322.8931223767422
aF0.0
aF0.0
aF325.94524119927934
aF0.0
aF0.0
aF0.0
aF323.72936225314555
aF332.1155762204281
aF651.0416666663779
asS'f_1138'
p309
(lp310
F1342.2818791993525
aF966.8063164685087
aF328.51511169508615
aF332.6679973387864
aF327.01111837811794
aF0.0
aF2291.325695578509
aF325.5208333336254
aF2011.397921551677
aF0.0
aF358.93754486734207
aF0.0
aF0.0
aF0.0
aF1308.0444735163835
aF645.1612903231938
aF2310.231023097865
aF1619.1709844525785
aF973.3939000645881
aF2646.3777704256327
aF0.0
aF0.0
aF4073.3197556020427
aF0.0
aF4436.860068260764
aF0.0
aF3445.8993797383255
aF1963.3507853352905
aF4641.909814325275
aF10497.79884863207
aF3352.3298692617423
aF650.6180871827564
aF0.0
aF962.4639076034458
aF9735.744089014801
aF0.0
aF0.0
aF972.4473257697061
aF0.0
aF679.8096532968426
aF0.0
aF325.0975292589533
aF0.0
aF2593.1928687172267
aF342.2313483914018
aF661.8133686302327
aF0.0
aF4609.812314791316
aF0.0
aF1028.8065843623667
aF5535.656138070907
aF973.3939000649394
aF3610.1083032495817
aF645.7862447534844
aF7910.349373753028
aF0.0
aF2281.616688391845
aF330.68783068761905
aF332.77870216303876
aF668.0026720110675
aF323.72936225314555
aF1660.5778810968584
aF2604.1666666634405
asS'f_1139'
p311
(lp312
F0.0
aF0.0
aF0.0
aF0.0
aF0.0
aF0.0
aF0.0
aF0.0
aF335.23298692599036
aF0.0
aF0.0
aF336.58700774141545
aF0.0
aF0.0
aF327.01111837805564
aF0.0
aF330.0330033001449
aF323.83419689154584
aF648.9292667097253
aF661.5944426069343
aF0.0
aF326.4773098272496
aF0.0
aF0.0
aF0.0
aF0.0
aF1033.7698139214976
aF0.0
aF0.0
aF0.0
aF335.2329869261742
aF325.3090435913782
aF0.0
aF320.8213025344819
aF347.7051460363218
aF0.0
aF0.0
aF0.0
aF325.94524119952126
aF339.9048266484213
aF0.0
aF325.0975292589533
aF0.0
aF648.2982171798221
aF684.4626967828036
aF0.0
aF0.0
aF0.0
aF0.0
aF342.9355281207889
aF6838.1634646807015
aF648.9292667099596
aF2527.0758122712614
aF645.7862447534844
aF988.793671719915
aF0.0
aF0.0
aF0.0
aF0.0
aF0.0
aF0.0
aF0.0
aF1953.1249999949916
asS'f_63'
p313
(lp314
F1677.852348988516
aF0.0
aF328.51511169508615
aF0.0
aF327.01111837811794
aF0.0
aF0.0
aF651.0416666672508
aF1005.6989607779713
aF324.88628979864956
aF1435.7501794739355
aF336.58700774141545
aF1023.8907849836758
aF319.7953309882905
aF327.01111837805564
aF1290.3225806504922
aF2640.26402639906
aF647.6683937830917
aF5191.434133673675
aF1323.1888852180778
aF322.58064516143105
aF326.4773098272496
aF339.4433129666569
aF1004.3521928350626
aF0.0
aF327.97638570020166
aF344.5899379738325
aF0.0
aF0.0
aF0.0
aF335.2329869261742
aF0.0
aF0.0
aF0.0
aF0.0
aF0.0
aF341.1804844759758
aF0.0
aF651.8904823990425
aF339.9048266484213
aF0.0
aF0.0
aF0.0
aF0.0
aF684.4626967828036
aF0.0
aF0.0
aF329.2723081990804
aF0.0
aF0.0
aF0.0
aF0.0
aF0.0
aF0.0
aF0.0
aF0.0
aF0.0
aF330.68783068761905
aF665.5574043260775
aF0.0
aF323.72936225314555
aF0.0
aF0.0
asS'f_2185'
p315
(lp316
F1006.7114093963121
aF1289.0750886287788
aF657.0302233901723
aF0.0
aF327.01111837811794
aF325.94524119946544
aF0.0
aF0.0
aF335.23298692599036
aF0.0
aF2153.6252691994855
aF0.0
aF341.2969283278919
aF0.0
aF3270.111183780557
aF0.0
aF330.0330033001449
aF0.0
aF0.0
aF661.5944426069343
aF322.58064516143105
aF652.9546196544992
aF1018.3299388999708
aF334.7840642783542
aF682.5938566550011
aF983.9291571006052
aF689.179875947665
aF654.450261779818
aF0.0
aF1015.916017609451
aF670.4659738523484
aF975.9271307741348
aF1998.667554959296
aF641.6426050689638
aF1738.5257301760792
aF1297.8585334243253
aF341.1804844759758
aF0.0
aF0.0
aF0.0
aF0.0
aF650.1950585179065
aF0.0
aF324.14910858991107
aF342.2313483914018
aF330.90668431511637
aF0.0
aF329.2723081990804
aF0.0
aF1028.8065843623667
aF325.62683165141266
aF0.0
aF1444.043321304426
aF322.8931223767422
aF329.59789057330494
aF0.0
aF651.8904823985587
aF330.68783068761905
aF1663.8935108099013
aF0.0
aF0.0
aF0.0
aF651.0416666663779
asS'f_60'
p317
(lp318
F0.0
aF0.0
aF657.0302233901723
aF0.0
aF0.0
aF0.0
aF0.0
aF0.0
aF0.0
aF324.88628979864956
aF0.0
aF1009.7610232242465
aF0.0
aF0.0
aF0.0
aF0.0
aF0.0
aF0.0
aF0.0
aF0.0
aF645.1612903228621
aF0.0
aF0.0
aF0.0
aF3071.672354946419
aF0.0
aF689.179875947665
aF981.6753926697271
aF331.56498673721825
aF338.6386725364836
aF1005.6989607785226
aF650.6180871827564
aF666.2225183211781
aF0.0
aF347.7051460363218
aF0.0
aF0.0
aF324.149108589902
aF325.94524119952126
aF339.9048266484213
aF322.68473701195376
aF0.0
aF973.3939000653234
aF324.14910858991107
aF0.0
aF0.0
aF0.0
aF0.0
aF0.0
aF0.0
aF325.62683165141266
aF0.0
aF0.0
aF322.8931223767422
aF0.0
aF0.0
aF0.0
aF0.0
aF998.3361064891164
aF1336.005344026385
aF647.4587245062911
aF0.0
aF0.0
asS'f_854'
p319
(lp320
F0.0
aF1611.343860775722
aF985.5453350852586
aF332.6679973387864
aF327.01111837811794
aF1303.7809648020093
aF654.6644844518952
aF325.5208333336254
aF0.0
aF0.0
aF0.0
aF0.0
aF0.0
aF319.7953309882905
aF327.01111837805564
aF1290.3225806504922
aF330.0330033001449
aF0.0
aF0.0
aF0.0
aF0.0
aF979.431929481749
aF339.4433129666569
aF334.7840642783542
aF0.0
aF0.0
aF0.0
aF327.225130889909
aF0.0
aF0.0
aF0.0
aF325.3090435913782
aF333.11125916058904
aF320.8213025344819
aF0.0
aF973.3939000651476
aF341.1804844759758
aF0.0
aF325.94524119952126
aF679.8096532968426
aF322.68473701195376
aF325.0975292589533
aF0.0
aF0.0
aF0.0
aF992.7200529453492
aF318.9792663477639
aF329.2723081990804
aF0.0
aF342.9355281207889
aF0.0
aF324.4646333549798
aF361.0108303249581
aF322.8931223767422
aF0.0
aF966.8063164670448
aF0.0
aF0.0
aF0.0
aF0.0
aF0.0
aF664.2311524408562
aF325.52083333318893
asS'f_857'
p321
(lp322
F1677.852348988516
aF2255.8814050901115
aF7884.3626806757975
aF3326.6799733878643
aF2943.1000654020213
aF325.94524119946544
aF4909.983633384008
aF3580.7291666709148
aF1005.6989607779713
aF324.88628979864956
aF2512.562814067969
aF673.1740154828309
aF15358.36177480399
aF959.3859929648717
aF1308.0444735163835
aF645.1612903231938
aF13531.353135348987
aF14248.704663273342
aF14600.908501015267
aF3638.769434339191
aF1290.3225806498288
aF8488.410055504337
aF6109.979633397666
aF2678.272514224704
aF7849.82935153577
aF1967.858314197037
aF3445.8993797383255
aF5235.602094234381
aF14588.859416484009
aF1693.1933626770322
aF1340.9319477089623
aF975.9271307741348
aF333.11125916058904
aF7378.889958296146
aF5563.282336576726
aF648.9292667100983
aF682.3609689519516
aF324.149108589902
aF977.8357235985638
aF4418.7627464327215
aF645.3694740239075
aF325.0975292589533
aF2595.717066838798
aF972.4473257697333
aF3080.082135521528
aF0.0
aF0.0
aF4939.0846229809695
aF0.0
aF3772.2908093297688
aF1628.1341582518842
aF2271.252433481762
aF2166.064981945155
aF1614.4656118785756
aF11535.92617010237
aF322.2687721556816
aF1955.6714471915288
aF2314.8148148101777
aF5657.237936768483
aF5344.021376084291
aF9388.151505340193
aF996.3467286612845
aF0.0
asS'f_851'
p323
(lp324
F0.0
aF644.5375443123392
aF657.0302233901723
aF0.0
aF654.0222367562359
aF0.0
aF0.0
aF0.0
aF335.23298692599036
aF324.88628979864956
aF1794.6877243310016
aF336.58700774141545
aF1023.8907849836758
aF959.3859929648717
aF327.01111837805564
aF0.0
aF660.0660066002898
aF323.83419689154584
aF0.0
aF992.3916639104016
aF322.58064516143105
aF326.4773098272496
aF339.4433129666569
aF334.7840642783542
aF0.0
aF327.97638570020166
aF344.5899379738325
aF0.0
aF0.0
aF0.0
aF335.2329869261742
aF325.3090435913782
aF333.11125916058904
aF0.0
aF0.0
aF1622.3231667700854
aF341.1804844759758
aF0.0
aF0.0
aF339.9048266484213
aF322.68473701195376
aF0.0
aF0.0
aF0.0
aF1368.925393569962
aF0.0
aF637.9585326955278
aF0.0
aF318.7759005419662
aF342.9355281207889
aF325.62683165141266
aF0.0
aF0.0
aF0.0
aF0.0
aF1611.3438607732821
aF0.0
aF661.3756613752381
aF0.0
aF0.0
aF0.0
aF0.0
aF325.52083333318893
asS'f_186'
p325
(lp326
F0.0
aF0.0
aF0.0
aF332.6679973387864
aF0.0
aF325.94524119946544
aF0.0
aF651.0416666672508
aF0.0
aF324.88628979864956
aF358.93754486734207
aF0.0
aF0.0
aF319.7953309882905
aF0.0
aF645.1612903231938
aF330.0330033001449
aF323.83419689154584
aF0.0
aF0.0
aF0.0
aF0.0
aF0.0
aF334.7840642783542
aF2047.7815699606606
aF0.0
aF344.5899379738325
aF327.225130889909
aF0.0
aF0.0
aF0.0
aF650.6180871827564
aF333.11125916058904
aF641.6426050689638
aF0.0
aF0.0
aF0.0
aF648.298217179804
aF325.94524119952126
aF0.0
aF645.3694740239075
aF0.0
aF0.0
aF324.14910858991107
aF342.2313483914018
aF0.0
aF318.9792663477639
aF658.5446163981608
aF956.3277016258987
aF342.9355281207889
aF0.0
aF0.0
aF361.0108303249581
aF0.0
aF0.0
aF322.2687721556816
aF0.0
aF661.3756613752381
aF0.0
aF0.0
aF323.72936225314555
aF996.3467286612845
aF0.0
asS'f_1334'
p327
(lp328
F335.57046979877066
aF322.2687721561696
aF985.5453350852586
aF332.6679973387864
aF0.0
aF0.0
aF654.6644844518952
aF325.5208333336254
aF335.23298692599036
aF0.0
aF717.8750897346841
aF1009.7610232242465
aF341.2969283278919
aF0.0
aF327.01111837805564
aF0.0
aF0.0
aF0.0
aF324.46463335486266
aF1323.1888852180778
aF322.58064516143105
aF326.4773098272496
aF0.0
aF334.7840642783542
aF341.29692832750055
aF327.97638570020166
aF344.5899379738325
aF0.0
aF0.0
aF1015.916017609451
aF1005.6989607785226
aF325.3090435913782
aF666.2225183211781
aF0.0
aF2433.936022250935
aF324.46463335504916
aF682.3609689519516
aF324.149108589902
aF977.8357235985638
aF0.0
aF0.0
aF325.0975292589533
aF324.4646333551077
aF324.14910858991107
aF342.2313483914018
aF330.90668431511637
aF0.0
aF987.8169245972413
aF0.0
aF342.9355281207889
aF325.62683165141266
aF324.4646333549798
aF1083.0324909748745
aF645.7862447534844
aF329.59789057330494
aF0.0
aF325.94524119927934
aF1322.751322754684
aF332.77870216303876
aF1670.0066800223567
aF0.0
aF1992.693457318343
aF0.0
asS'f_188'
p329
(lp330
F335.57046979877066
aF0.0
aF0.0
aF0.0
aF327.01111837811794
aF0.0
aF0.0
aF0.0
aF0.0
aF649.7725795972991
aF0.0
aF1009.7610232242465
aF0.0
aF0.0
aF0.0
aF1612.903225802854
aF0.0
aF1619.1709844525785
aF0.0
aF992.3916639104016
aF645.1612903228621
aF0.0
aF339.4433129666569
aF334.7840642783542
aF1023.8907849825017
aF0.0
aF2067.5396278386106
aF327.225130889909
aF663.1299734744365
aF338.6386725364836
aF0.0
aF1301.2361743696522
aF0.0
aF641.6426050689638
aF0.0
aF973.3939000651476
aF682.3609689519516
aF10048.622366287993
aF2933.5071707946545
aF5438.477226370417
aF1936.1084220676166
aF0.0
aF648.9292667102154
aF1620.7455429443999
aF3422.3134839140184
aF0.0
aF4146.730462523975
aF4939.0846229809695
aF1593.8795027047609
aF1028.8065843623667
aF6512.536633028254
aF3244.6463335497983
aF3249.097472923475
aF1614.4656118785756
aF329.59789057330494
aF1933.612632929989
aF2933.507170792477
aF330.68783068761905
aF998.3361064891164
aF1670.0066800223567
aF5179.669796046211
aF1660.5778810968584
aF651.0416666663779
asS'f_181'
p331
(lp332
F335.57046979877066
aF0.0
aF0.0
aF0.0
aF327.01111837811794
aF325.94524119946544
aF0.0
aF0.0
aF1340.9319477082272
aF0.0
aF358.93754486734207
aF0.0
aF0.0
aF0.0
aF0.0
aF322.5806451615969
aF0.0
aF323.83419689154584
aF0.0
aF0.0
aF322.58064516143105
aF0.0
aF0.0
aF0.0
aF0.0
aF327.97638570020166
aF689.179875947665
aF1308.9005235637997
aF0.0
aF2031.8320352145931
aF1676.164934625539
aF325.3090435913782
aF0.0
aF0.0
aF1043.1154381089657
aF1622.3231667700854
aF682.3609689519516
aF0.0
aF325.94524119952126
aF679.8096532968426
aF0.0
aF325.0975292589533
aF0.0
aF0.0
aF0.0
aF0.0
aF0.0
aF329.2723081990804
aF0.0
aF1028.8065843623667
aF651.2536633028253
aF1622.3231667697385
aF361.0108303249581
aF0.0
aF329.59789057330494
aF0.0
aF651.8904823985587
aF0.0
aF0.0
aF668.0026720110675
aF0.0
aF332.1155762204281
aF325.52083333318893
asS'f_180'
p333
(lp334
F671.1409395975413
aF644.5375443123392
aF328.51511169508615
aF998.0039920163592
aF327.01111837811794
aF651.8904823989309
aF654.6644844518952
aF651.0416666672508
aF0.0
aF324.88628979864956
aF717.8750897346841
aF1346.3480309699446
aF1023.8907849836758
aF0.0
aF654.0222367561113
aF967.7419354847908
aF990.0990099004349
aF647.6683937830917
aF324.46463335486266
aF992.3916639104016
aF645.1612903228621
aF1632.3865491310555
aF0.0
aF0.0
aF341.29692832750055
aF983.9291571006052
aF3101.3094417633965
aF1308.9005235637997
aF663.1299734744365
aF1015.916017609451
aF3687.5628561889826
aF1626.5452179517172
aF666.2225183211781
aF641.6426050689638
aF2781.641168288363
aF1622.3231667700854
aF2047.0829068515138
aF0.0
aF3259.452411995213
aF1019.7144799452641
aF645.3694740239075
aF1300.3901170399497
aF324.4646333551077
aF1620.7455429443999
aF1711.156741951566
aF330.90668431511637
aF318.9792663477639
aF0.0
aF318.7759005419662
aF2400.5486968422497
aF2279.387821556781
aF1946.7878001257504
aF4332.129963901794
aF968.6793671302268
aF1318.3915622974137
aF0.0
aF977.8357235978381
aF661.3756613752381
aF332.77870216303876
aF2004.008016028953
aF323.72936225314555
aF1660.5778810968584
aF976.5624999995669
asS'f_335'
p335
(lp336
F1677.852348988516
aF0.0
aF328.51511169508615
aF998.0039920163592
aF0.0
aF0.0
aF0.0
aF0.0
aF2681.8638954057906
aF1949.3177387877636
aF0.0
aF1346.3480309699446
aF682.5938566557838
aF0.0
aF3597.122302159653
aF2258.0645161281
aF0.0
aF3238.3419689154584
aF324.46463335486266
aF3969.5666556437104
aF1935.483870964482
aF0.0
aF678.8866259333138
aF0.0
aF6143.344709892838
aF327.97638570020166
aF3790.489317713254
aF981.6753926697271
aF663.1299734744365
aF677.2773450729673
aF2011.3979215527797
aF0.0
aF1332.4450366465949
aF0.0
aF347.7051460363218
aF0.0
aF1705.9024223744527
aF972.4473257697061
aF1303.7809648022323
aF0.0
aF968.0542110358613
aF325.0975292589533
aF2920.1817001949375
aF0.0
aF3080.082135521528
aF0.0
aF0.0
aF0.0
aF0.0
aF0.0
aF1302.5073266097938
aF0.0
aF0.0
aF645.7862447534844
aF0.0
aF0.0
aF0.0
aF2314.8148148101777
aF1331.1148086563894
aF0.0
aF971.1880867594368
aF7306.542676851533
aF0.0
assS'subclass_sl'
p337
(dp338
g10
(I0
I26
tp339
sg12
(I26
I63
tp340
ssS'norm'
p341
F1000000.0
sS'cls'
p342
(dp343
S'class'
p344
(S'HighQuality'
p345
S'HighQuality'
p346
S'HighQuality'
p347
S'HighQuality'
p348
S'HighQuality'
p349
S'HighQuality'
p350
S'HighQuality'
p351
S'HighQuality'
p352
S'HighQuality'
p353
S'HighQuality'
p354
S'HighQuality'
p355
S'HighQuality'
p356
S'HighQuality'
p357
S'HighQuality'
p358
S'HighQuality'
p359
S'HighQuality'
p360
S'HighQuality'
p361
S'HighQuality'
p362
S'HighQuality'
p363
S'HighQuality'
p364
S'HighQuality'
p365
S'HighQuality'
p366
S'HighQuality'
p367
S'HighQuality'
p368
S'HighQuality'
p369
g3
S'LowQuality'
p370
S'LowQuality'
p371
S'LowQuality'
p372
S'LowQuality'
p373
S'LowQuality'
p374
S'LowQuality'
p375
S'LowQuality'
p376
S'LowQuality'
p377
S'LowQuality'
p378
S'LowQuality'
p379
S'LowQuality'
p380
S'LowQuality'
p381
S'LowQuality'
p382
S'LowQuality'
p383
S'LowQuality'
p384
S'LowQuality'
p385
S'LowQuality'
p386
S'LowQuality'
p387
S'LowQuality'
p388
S'LowQuality'
p389
S'LowQuality'
p390
S'LowQuality'
p391
S'LowQuality'
p392
S'LowQuality'
p393
S'LowQuality'
p394
S'LowQuality'
p395
S'LowQuality'
p396
S'LowQuality'
p397
S'LowQuality'
p398
S'LowQuality'
p399
S'LowQuality'
p400
S'LowQuality'
p401
S'LowQuality'
p402
S'LowQuality'
p403
S'LowQuality'
p404
S'LowQuality'
p405
g5
tp406
sS'subclass'
p407
(lp408
S'HighQuality_subcl'
p409
aS'HighQuality_subcl'
p410
aS'HighQuality_subcl'
p411
aS'HighQuality_subcl'
p412
aS'HighQuality_subcl'
p413
aS'HighQuality_subcl'
p414
aS'HighQuality_subcl'
p415
aS'HighQuality_subcl'
p416
aS'HighQuality_subcl'
p417
aS'HighQuality_subcl'
p418
aS'HighQuality_subcl'
p419
aS'HighQuality_subcl'
p420
aS'HighQuality_subcl'
p421
aS'HighQuality_subcl'
p422
aS'HighQuality_subcl'
p423
aS'HighQuality_subcl'
p424
aS'HighQuality_subcl'
p425
aS'HighQuality_subcl'
p426
aS'HighQuality_subcl'
p427
aS'HighQuality_subcl'
p428
aS'HighQuality_subcl'
p429
aS'HighQuality_subcl'
p430
aS'HighQuality_subcl'
p431
aS'HighQuality_subcl'
p432
aS'HighQuality_subcl'
p433
ag10
aS'LowQuality_subcl'
p434
aS'LowQuality_subcl'
p435
aS'LowQuality_subcl'
p436
aS'LowQuality_subcl'
p437
aS'LowQuality_subcl'
p438
aS'LowQuality_subcl'
p439
aS'LowQuality_subcl'
p440
aS'LowQuality_subcl'
p441
aS'LowQuality_subcl'
p442
aS'LowQuality_subcl'
p443
aS'LowQuality_subcl'
p444
aS'LowQuality_subcl'
p445
aS'LowQuality_subcl'
p446
aS'LowQuality_subcl'
p447
aS'LowQuality_subcl'
p448
aS'LowQuality_subcl'
p449
aS'LowQuality_subcl'
p450
aS'LowQuality_subcl'
p451
aS'LowQuality_subcl'
p452
aS'LowQuality_subcl'
p453
aS'LowQuality_subcl'
p454
aS'LowQuality_subcl'
p455
aS'LowQuality_subcl'
p456
aS'LowQuality_subcl'
p457
aS'LowQuality_subcl'
p458
aS'LowQuality_subcl'
p459
aS'LowQuality_subcl'
p460
aS'LowQuality_subcl'
p461
aS'LowQuality_subcl'
p462
aS'LowQuality_subcl'
p463
aS'LowQuality_subcl'
p464
aS'LowQuality_subcl'
p465
aS'LowQuality_subcl'
p466
aS'LowQuality_subcl'
p467
aS'LowQuality_subcl'
p468
aS'LowQuality_subcl'
p469
ag12
asS'subject'
p470
(S'8789.2.d63.HQNoRum'
p471
S'8789.3.d21.HQNoRum'
p472
S'8792.2.d63.HQRum'
p473
S'8792.4.d21andCnSt.HQRum'
p474
S'8802.2.d63.HQNoRum'
p475
S'8804.2.d63.HQ40MDGSRum'
p476
S'8804.3.d21.HQ40MDGSRum'
p477
S'8829.3.d21.HQ40MDGSNoRum'
p478
S'8847.2.d63.HQ40MDGSNoRum'
p479
S'8847.3.d21.HQ40MDGSNoRum'
p480
S'8859.8.d63.HQRum'
p481
S'8861.2.d63.HQNoRum'
p482
S'8869.2.d63.HQNoRum'
p483
S'8869.3.d21.HQNoRum'
p484
S'8871.4.d21andCnSt.HQRum'
p485
S'8878.3.d21.HQRum'
p486
S'8942.2.d63.HQ40MDGSNoRum'
p487
S'8946.3.d21.HQRum'
p488
S'8958.3.d21.HQ40MDGSNoRum'
p489
S'8966.2.d63.HQRum'
p490
S'8966.3.d21.HQRum'
p491
S'8974.2.d63.HQ40MDGSRum'
p492
S'8989.8.d63.HQ40MDGSRum'
p493
S'8990.2.d63.HQRum'
p494
S'8995.3.d21.HQNoRum'
p495
S'8998.2.d63.HQNoRum'
p496
S'8791.8.d63.20NormalMDGS'
p497
S'8796.2.d63.40DRC'
p498
S'8798.3.d21.20DeoiledMDGS'
p499
S'8809.3.d21.LQ40MDGSNoRum'
p500
S'8812.2.d63.40DeoiledMDGS'
p501
S'8813.3.d21.40DeoiledMDGS'
p502
S'8815.2.d63.20NormalMDGS'
p503
S'8815.3.d21.20NormalMDGS'
p504
S'8821.2.d63.LQ40MDGSNoRum'
p505
S'8824.2.d63.LQ40MDGSNoRum'
p506
S'8831.2.d63.40NormalMDGS'
p507
S'8836.3.d21.40NormalMDGS'
p508
S'8842.2.d63.20NormalMDGS'
p509
S'8845.2.d63.40DeoiledMDGS'
p510
S'8849.3.d21.20DeoiledMDGS'
p511
S'8879.4.d21andCnSt.20NormalMDGS'
p512
S'8882.3.d21.20NormalMDGS'
p513
S'8934.4.d21andCnSt.40DeoiledMDGS'
p514
S'8934.8.d63.40DeoiledMDGS'
p515
S'8937.8.d63.40DRC'
p516
S'8941.2.d63.20NormalMDGS'
p517
S'8943.3.d21.40NormalMDGS'
p518
S'8945.3.d21.40DRC'
p519
S'8949.2.d63.LQ40MDGSNoRum'
p520
S'8951.2.d63.LQ40MDGSNoRum'
p521
S'8963.3.d21.LQ40MDGSNoRum'
p522
S'8963.8.d63.LQ40MDGSNoRum'
p523
S'8964.2.d63.20DeoiledMDGS'
p524
S'8968.4.d21andCnSt.LQ40MDGSNoRum'
p525
S'8972.4.d21andCnSt.20DeoiledMDGS'
p526
S'8973.3.d21.40DeoiledMDGS'
p527
S'8975.3.d21.20DeoiledMDGS'
p528
S'8976.4.d21andCnSt.20DeoiledMDGS'
p529
S'8979.2.d63.LQ40MDGSNoRum'
p530
S'8996.3.d21.20NormalMDGS'
p531
S'8997.3.d21.20NormalMDGS'
p532
S'8997.8.d63.20NormalMDGS'
p533
tp534
ss.